ARM GAS  C:\Users\ELEADM~1.000\AppData\Local\Temp\ccXxTxGl.s 			page 1


   1              		.syntax unified
   2              		.cpu cortex-m3
   3              		.fpu softvfp
   4              		.eabi_attribute 20, 1
   5              		.eabi_attribute 21, 1
   6              		.eabi_attribute 23, 3
   7              		.eabi_attribute 24, 1
   8              		.eabi_attribute 25, 1
   9              		.eabi_attribute 26, 1
  10              		.eabi_attribute 30, 1
  11              		.eabi_attribute 34, 1
  12              		.eabi_attribute 18, 4
  13              		.thumb
  14              		.file	"I2C_made.c"
  15              		.text
  16              	.Ltext0:
  17              		.cfi_sections	.debug_frame
  18              		.section	.text.I2C_write,"ax",%progbits
  19              		.align	2
  20              		.global	I2C_write
  21              		.thumb
  22              		.thumb_func
  23              		.type	I2C_write, %function
  24              	I2C_write:
  25              	.LFB63:
  26              		.file 1 ".\\I2C_made.c"
   1:.\I2C_made.c  **** /**
   2:.\I2C_made.c  ****  * @file    I2C_made.c
   3:.\I2C_made.c  ****  * @brief   I2C_made method file
   4:.\I2C_made.c  ****  * @details 
   5:.\I2C_made.c  **** */
   6:.\I2C_made.c  **** 
   7:.\I2C_made.c  **** #include <I2C_made.h>
   8:.\I2C_made.c  **** 
   9:.\I2C_made.c  **** /**
  10:.\I2C_made.c  **** * @brief    Write function of I2C communication
  11:.\I2C_made.c  **** * @details  write value to slave register by I2C communication
  12:.\I2C_made.c  **** * @param    uint8 device_addr : Slave Device address
  13:.\I2C_made.c  **** * @param    uint8 Reg : register address
  14:.\I2C_made.c  **** * @param    uint8 value : value to write
  15:.\I2C_made.c  **** */
  16:.\I2C_made.c  **** void I2C_write(uint8 device_addr, uint8 Reg, uint8 value)             // Gyroscope: you need to cha
  17:.\I2C_made.c  **** {
  27              		.loc 1 17 0
  28              		.cfi_startproc
  29              		@ args = 0, pretend = 0, frame = 8
  30              		@ frame_needed = 0, uses_anonymous_args = 0
  31              	.LVL0:
  32 0000 10B5     		push	{r4, lr}
  33              		.cfi_def_cfa_offset 8
  34              		.cfi_offset 4, -8
  35              		.cfi_offset 14, -4
  36 0002 82B0     		sub	sp, sp, #8
  37              		.cfi_def_cfa_offset 16
  38 0004 0446     		mov	r4, r0
  18:.\I2C_made.c  ****     uint8 write_buf[2] = {};
  19:.\I2C_made.c  ****     write_buf[0] = Reg;                //register address that you want to write
ARM GAS  C:\Users\ELEADM~1.000\AppData\Local\Temp\ccXxTxGl.s 			page 2


  39              		.loc 1 19 0
  40 0006 8DF80410 		strb	r1, [sp, #4]
  20:.\I2C_made.c  ****     write_buf[1] = value;                //value that you want to write to register
  41              		.loc 1 20 0
  42 000a 8DF80520 		strb	r2, [sp, #5]
  21:.\I2C_made.c  ****     
  22:.\I2C_made.c  ****     I2C_MasterClearStatus();
  43              		.loc 1 22 0
  44 000e FFF7FEFF 		bl	I2C_MasterClearStatus
  45              	.LVL1:
  23:.\I2C_made.c  ****     I2C_MasterWriteBuf(device_addr, write_buf, 2, I2C_MODE_COMPLETE_XFER);
  46              		.loc 1 23 0
  47 0012 2046     		mov	r0, r4
  48 0014 01A9     		add	r1, sp, #4
  49 0016 0222     		movs	r2, #2
  50 0018 0023     		movs	r3, #0
  51 001a FFF7FEFF 		bl	I2C_MasterWriteBuf
  52              	.LVL2:
  53              	.L2:
  24:.\I2C_made.c  ****     while(((I2C_MasterStatus()) & I2C_MSTAT_WR_CMPLT) == 0);
  54              		.loc 1 24 0 discriminator 1
  55 001e FFF7FEFF 		bl	I2C_MasterStatus
  56              	.LVL3:
  57 0022 10F0020F 		tst	r0, #2
  58 0026 FAD0     		beq	.L2
  25:.\I2C_made.c  ****     
  26:.\I2C_made.c  ****     return;
  27:.\I2C_made.c  **** }
  59              		.loc 1 27 0
  60 0028 02B0     		add	sp, sp, #8
  61              		.cfi_def_cfa_offset 8
  62              		@ sp needed
  63 002a 10BD     		pop	{r4, pc}
  64              		.cfi_endproc
  65              	.LFE63:
  66              		.size	I2C_write, .-I2C_write
  67              		.section	.text.I2C_read,"ax",%progbits
  68              		.align	2
  69              		.global	I2C_read
  70              		.thumb
  71              		.thumb_func
  72              		.type	I2C_read, %function
  73              	I2C_read:
  74              	.LFB64:
  28:.\I2C_made.c  **** 
  29:.\I2C_made.c  **** /**
  30:.\I2C_made.c  **** * @brief    Read function of I2C communication
  31:.\I2C_made.c  **** * @details  read value from slave register by I2C communication
  32:.\I2C_made.c  **** * @param    uint8 device_addr : Slave Device address
  33:.\I2C_made.c  **** * @param    uint8 Reg : register address
  34:.\I2C_made.c  **** */
  35:.\I2C_made.c  **** uint8 I2C_read(uint8 device_addr, uint8 Reg) 
  36:.\I2C_made.c  **** {
  75              		.loc 1 36 0
  76              		.cfi_startproc
  77              		@ args = 0, pretend = 0, frame = 8
  78              		@ frame_needed = 0, uses_anonymous_args = 0
ARM GAS  C:\Users\ELEADM~1.000\AppData\Local\Temp\ccXxTxGl.s 			page 3


  79              	.LVL4:
  80 0000 30B5     		push	{r4, r5, lr}
  81              		.cfi_def_cfa_offset 12
  82              		.cfi_offset 4, -12
  83              		.cfi_offset 5, -8
  84              		.cfi_offset 14, -4
  85 0002 83B0     		sub	sp, sp, #12
  86              		.cfi_def_cfa_offset 24
  87 0004 0446     		mov	r4, r0
  37:.\I2C_made.c  ****    
  38:.\I2C_made.c  ****     uint8 write_buf[1] = {};
  88              		.loc 1 38 0
  89 0006 0025     		movs	r5, #0
  39:.\I2C_made.c  ****     write_buf[0] = Reg;
  90              		.loc 1 39 0
  91 0008 8DF80410 		strb	r1, [sp, #4]
  40:.\I2C_made.c  ****     
  41:.\I2C_made.c  ****     uint8 read_buf[1] = {};
  92              		.loc 1 41 0
  93 000c 8DF80050 		strb	r5, [sp]
  42:.\I2C_made.c  ****     
  43:.\I2C_made.c  ****     I2C_MasterClearStatus();
  94              		.loc 1 43 0
  95 0010 FFF7FEFF 		bl	I2C_MasterClearStatus
  96              	.LVL5:
  44:.\I2C_made.c  ****     CyDelay(100);
  97              		.loc 1 44 0
  98 0014 6420     		movs	r0, #100
  99 0016 FFF7FEFF 		bl	CyDelay
 100              	.LVL6:
  45:.\I2C_made.c  ****     I2C_MasterWriteBuf(device_addr, write_buf, 1, I2C_MODE_COMPLETE_XFER);
 101              		.loc 1 45 0
 102 001a 2046     		mov	r0, r4
 103 001c 01A9     		add	r1, sp, #4
 104 001e 0122     		movs	r2, #1
 105 0020 2B46     		mov	r3, r5
 106 0022 FFF7FEFF 		bl	I2C_MasterWriteBuf
 107              	.LVL7:
 108              	.L5:
  46:.\I2C_made.c  ****     while((I2C_MasterStatus() & I2C_MSTAT_WR_CMPLT) == 0);
 109              		.loc 1 46 0 discriminator 1
 110 0026 FFF7FEFF 		bl	I2C_MasterStatus
 111              	.LVL8:
 112 002a 10F0020F 		tst	r0, #2
 113 002e FAD0     		beq	.L5
  47:.\I2C_made.c  ****     CyDelay(50);
 114              		.loc 1 47 0
 115 0030 3220     		movs	r0, #50
 116 0032 FFF7FEFF 		bl	CyDelay
 117              	.LVL9:
  48:.\I2C_made.c  ****     I2C_MasterClearStatus();
 118              		.loc 1 48 0
 119 0036 FFF7FEFF 		bl	I2C_MasterClearStatus
 120              	.LVL10:
  49:.\I2C_made.c  ****     I2C_MasterReadBuf(device_addr, read_buf, 1, I2C_MODE_COMPLETE_XFER);
 121              		.loc 1 49 0
 122 003a 2046     		mov	r0, r4
ARM GAS  C:\Users\ELEADM~1.000\AppData\Local\Temp\ccXxTxGl.s 			page 4


 123 003c 6946     		mov	r1, sp
 124 003e 0122     		movs	r2, #1
 125 0040 0023     		movs	r3, #0
 126 0042 FFF7FEFF 		bl	I2C_MasterReadBuf
 127              	.LVL11:
 128              	.L6:
  50:.\I2C_made.c  ****     while((I2C_MasterStatus() & I2C_MSTAT_RD_CMPLT) == 0);
 129              		.loc 1 50 0 discriminator 1
 130 0046 FFF7FEFF 		bl	I2C_MasterStatus
 131              	.LVL12:
 132 004a 10F0010F 		tst	r0, #1
 133 004e FAD0     		beq	.L6
  51:.\I2C_made.c  ****    
  52:.\I2C_made.c  ****     return read_buf[0];
  53:.\I2C_made.c  **** }
 134              		.loc 1 53 0
 135 0050 9DF80000 		ldrb	r0, [sp]	@ zero_extendqisi2
 136 0054 03B0     		add	sp, sp, #12
 137              		.cfi_def_cfa_offset 12
 138              		@ sp needed
 139 0056 30BD     		pop	{r4, r5, pc}
 140              		.cfi_endproc
 141              	.LFE64:
 142              		.size	I2C_read, .-I2C_read
 143              		.text
 144              	.Letext0:
 145              		.file 2 "c:\\program files (x86)\\cypress\\psoc creator\\3.3\\psoc creator\\import\\gnu\\arm\\4.9.
 146              		.file 3 "c:\\program files (x86)\\cypress\\psoc creator\\3.3\\psoc creator\\import\\gnu\\arm\\4.9.
 147              		.file 4 "Generated_Source\\PSoC5/cytypes.h"
 148              		.file 5 "Generated_Source\\PSoC5/I2C.h"
 149              		.file 6 "Generated_Source\\PSoC5/CyLib.h"
 150              		.file 7 "Generated_Source\\PSoC5/core_cm3.h"