ARM GAS  C:\Users\ELEADM~1.000\AppData\Local\Temp\ccJpWt7I.s 			page 1


   1              		.syntax unified
   2              		.cpu cortex-m3
   3              		.fpu softvfp
   4              		.eabi_attribute 20, 1
   5              		.eabi_attribute 21, 1
   6              		.eabi_attribute 23, 3
   7              		.eabi_attribute 24, 1
   8              		.eabi_attribute 25, 1
   9              		.eabi_attribute 26, 1
  10              		.eabi_attribute 30, 1
  11              		.eabi_attribute 34, 1
  12              		.eabi_attribute 18, 4
  13              		.thumb
  14              		.file	"IR.c"
  15              		.text
  16              	.Ltext0:
  17              		.cfi_sections	.debug_frame
  18              		.section	.text.wait_going_up,"ax",%progbits
  19              		.align	2
  20              		.global	wait_going_up
  21              		.thumb
  22              		.thumb_func
  23              		.type	wait_going_up, %function
  24              	wait_going_up:
  25              	.LFB63:
  26              		.file 1 ".\\IR.c"
   1:.\IR.c        **** /**
   2:.\IR.c        ****  * @file IR.c
   3:.\IR.c        ****  * @brief IR receiver method file
   4:.\IR.c        ****  * @details 
   5:.\IR.c        **** */
   6:.\IR.c        **** #include "IR.h"
   7:.\IR.c        **** 
   8:.\IR.c        **** 
   9:.\IR.c        **** /**
  10:.\IR.c        **** * @brief wait until signal goes up
  11:.\IR.c        **** * @details continue looping before IR_receiver value becomes 1
  12:.\IR.c        **** */
  13:.\IR.c        **** void wait_going_up()
  14:.\IR.c        **** {
  27              		.loc 1 14 0
  28              		.cfi_startproc
  29              		@ args = 0, pretend = 0, frame = 0
  30              		@ frame_needed = 0, uses_anonymous_args = 0
  31 0000 08B5     		push	{r3, lr}
  32              		.cfi_def_cfa_offset 8
  33              		.cfi_offset 3, -8
  34              		.cfi_offset 14, -4
  35              	.L2:
  15:.\IR.c        ****     while(!IR_receiver_Read()==1);
  36              		.loc 1 15 0 discriminator 1
  37 0002 FFF7FEFF 		bl	IR_receiver_Read
  38              	.LVL0:
  39 0006 0028     		cmp	r0, #0
  40 0008 FBD0     		beq	.L2
  16:.\IR.c        **** }    
  41              		.loc 1 16 0
ARM GAS  C:\Users\ELEADM~1.000\AppData\Local\Temp\ccJpWt7I.s 			page 2


  42 000a 08BD     		pop	{r3, pc}
  43              		.cfi_endproc
  44              	.LFE63:
  45              		.size	wait_going_up, .-wait_going_up
  46              		.section	.text.wait_going_down,"ax",%progbits
  47              		.align	2
  48              		.global	wait_going_down
  49              		.thumb
  50              		.thumb_func
  51              		.type	wait_going_down, %function
  52              	wait_going_down:
  53              	.LFB64:
  17:.\IR.c        **** 
  18:.\IR.c        **** 
  19:.\IR.c        **** /**
  20:.\IR.c        **** * @brief wait until signal goes down
  21:.\IR.c        **** * @details continue looping before IR_receiver value becomes 0
  22:.\IR.c        **** */
  23:.\IR.c        **** void wait_going_down()
  24:.\IR.c        **** {
  54              		.loc 1 24 0
  55              		.cfi_startproc
  56              		@ args = 0, pretend = 0, frame = 0
  57              		@ frame_needed = 0, uses_anonymous_args = 0
  58 0000 08B5     		push	{r3, lr}
  59              		.cfi_def_cfa_offset 8
  60              		.cfi_offset 3, -8
  61              		.cfi_offset 14, -4
  62              	.L5:
  25:.\IR.c        ****     while(IR_receiver_Read()==1);
  63              		.loc 1 25 0 discriminator 1
  64 0002 FFF7FEFF 		bl	IR_receiver_Read
  65              	.LVL1:
  66 0006 0128     		cmp	r0, #1
  67 0008 FBD0     		beq	.L5
  26:.\IR.c        **** }
  68              		.loc 1 26 0
  69 000a 08BD     		pop	{r3, pc}
  70              		.cfi_endproc
  71              	.LFE64:
  72              		.size	wait_going_down, .-wait_going_down
  73              		.section	.text.count_downtime,"ax",%progbits
  74              		.align	2
  75              		.global	count_downtime
  76              		.thumb
  77              		.thumb_func
  78              		.type	count_downtime, %function
  79              	count_downtime:
  80              	.LFB65:
  27:.\IR.c        **** 
  28:.\IR.c        **** 
  29:.\IR.c        **** /**
  30:.\IR.c        **** * @brief count signal down time
  31:.\IR.c        **** * @details count time until IR_receiver value goes up
  32:.\IR.c        **** * @return int
  33:.\IR.c        **** *   - returns count time
  34:.\IR.c        **** */
ARM GAS  C:\Users\ELEADM~1.000\AppData\Local\Temp\ccJpWt7I.s 			page 3


  35:.\IR.c        **** int count_downtime()
  36:.\IR.c        **** {
  81              		.loc 1 36 0
  82              		.cfi_startproc
  83              		@ args = 0, pretend = 0, frame = 0
  84              		@ frame_needed = 0, uses_anonymous_args = 0
  85 0000 10B5     		push	{r4, lr}
  86              		.cfi_def_cfa_offset 8
  87              		.cfi_offset 4, -8
  88              		.cfi_offset 14, -4
  89              	.LVL2:
  37:.\IR.c        ****     int cnt =0;
  90              		.loc 1 37 0
  91 0002 0024     		movs	r4, #0
  38:.\IR.c        ****     while(!IR_receiver_Read()==1)
  92              		.loc 1 38 0
  93 0004 00E0     		b	.L8
  94              	.LVL3:
  95              	.L9:
  39:.\IR.c        ****         cnt++;
  96              		.loc 1 39 0
  97 0006 0134     		adds	r4, r4, #1
  98              	.LVL4:
  99              	.L8:
  38:.\IR.c        ****     while(!IR_receiver_Read()==1)
 100              		.loc 1 38 0
 101 0008 FFF7FEFF 		bl	IR_receiver_Read
 102              	.LVL5:
 103 000c 0028     		cmp	r0, #0
 104 000e FAD0     		beq	.L9
  40:.\IR.c        ****     
  41:.\IR.c        ****     return cnt;
  42:.\IR.c        **** }
 105              		.loc 1 42 0
 106 0010 2046     		mov	r0, r4
 107 0012 10BD     		pop	{r4, pc}
 108              		.cfi_endproc
 109              	.LFE65:
 110              		.size	count_downtime, .-count_downtime
 111              		.section	.text.count_uptime,"ax",%progbits
 112              		.align	2
 113              		.global	count_uptime
 114              		.thumb
 115              		.thumb_func
 116              		.type	count_uptime, %function
 117              	count_uptime:
 118              	.LFB66:
  43:.\IR.c        **** 
  44:.\IR.c        **** 
  45:.\IR.c        **** /**
  46:.\IR.c        **** * @brief    count signal up time
  47:.\IR.c        **** * @details  count time until IR_receiver value goes down
  48:.\IR.c        **** * @return   int
  49:.\IR.c        **** *   - returns count time
  50:.\IR.c        **** */
  51:.\IR.c        **** int count_uptime()
  52:.\IR.c        **** {
ARM GAS  C:\Users\ELEADM~1.000\AppData\Local\Temp\ccJpWt7I.s 			page 4


 119              		.loc 1 52 0
 120              		.cfi_startproc
 121              		@ args = 0, pretend = 0, frame = 0
 122              		@ frame_needed = 0, uses_anonymous_args = 0
 123 0000 10B5     		push	{r4, lr}
 124              		.cfi_def_cfa_offset 8
 125              		.cfi_offset 4, -8
 126              		.cfi_offset 14, -4
 127              	.LVL6:
  53:.\IR.c        ****     int cnt =0;
 128              		.loc 1 53 0
 129 0002 0024     		movs	r4, #0
  54:.\IR.c        ****     while(IR_receiver_Read()==1)
 130              		.loc 1 54 0
 131 0004 00E0     		b	.L12
 132              	.LVL7:
 133              	.L13:
  55:.\IR.c        ****         cnt++;
 134              		.loc 1 55 0
 135 0006 0134     		adds	r4, r4, #1
 136              	.LVL8:
 137              	.L12:
  54:.\IR.c        ****     while(IR_receiver_Read()==1)
 138              		.loc 1 54 0
 139 0008 FFF7FEFF 		bl	IR_receiver_Read
 140              	.LVL9:
 141 000c 0128     		cmp	r0, #1
 142 000e FAD0     		beq	.L13
  56:.\IR.c        ****     
  57:.\IR.c        ****     return cnt;
  58:.\IR.c        **** }
 143              		.loc 1 58 0
 144 0010 2046     		mov	r0, r4
 145 0012 10BD     		pop	{r4, pc}
 146              		.cfi_endproc
 147              	.LFE66:
 148              		.size	count_uptime, .-count_uptime
 149              		.global	__aeabi_ui2d
 150              		.global	__aeabi_i2d
 151              		.global	__aeabi_dmul
 152              		.global	__aeabi_dadd
 153              		.global	__aeabi_d2uiz
 154              		.section	.text.get_IR,"ax",%progbits
 155              		.align	2
 156              		.global	get_IR
 157              		.thumb
 158              		.thumb_func
 159              		.type	get_IR, %function
 160              	get_IR:
 161              	.LFB67:
  59:.\IR.c        **** 
  60:.\IR.c        **** 
  61:.\IR.c        **** /**
  62:.\IR.c        **** * @brief    get Remote Controller Value
  63:.\IR.c        **** * @details  get each of the value sended by Remote Controller
  64:.\IR.c        **** * @return   int
  65:.\IR.c        ****     - returns hex value
ARM GAS  C:\Users\ELEADM~1.000\AppData\Local\Temp\ccJpWt7I.s 			page 5


  66:.\IR.c        **** */
  67:.\IR.c        **** int get_IR()
  68:.\IR.c        **** {
 162              		.loc 1 68 0
 163              		.cfi_startproc
 164              		@ args = 0, pretend = 0, frame = 40
 165              		@ frame_needed = 0, uses_anonymous_args = 0
 166 0000 2DE9F041 		push	{r4, r5, r6, r7, r8, lr}
 167              		.cfi_def_cfa_offset 24
 168              		.cfi_offset 4, -24
 169              		.cfi_offset 5, -20
 170              		.cfi_offset 6, -16
 171              		.cfi_offset 7, -12
 172              		.cfi_offset 8, -8
 173              		.cfi_offset 14, -4
 174 0004 8AB0     		sub	sp, sp, #40
 175              		.cfi_def_cfa_offset 64
  69:.\IR.c        ****     uint8 bit[33]={0};
 176              		.loc 1 69 0
 177 0006 0024     		movs	r4, #0
 178 0008 0194     		str	r4, [sp, #4]
 179 000a 0294     		str	r4, [sp, #8]
 180 000c 0394     		str	r4, [sp, #12]
 181 000e 0494     		str	r4, [sp, #16]
 182 0010 0594     		str	r4, [sp, #20]
 183 0012 0694     		str	r4, [sp, #24]
 184 0014 0794     		str	r4, [sp, #28]
 185 0016 0894     		str	r4, [sp, #32]
 186 0018 8DF82440 		strb	r4, [sp, #36]
 187              	.LVL10:
  70:.\IR.c        ****     unsigned int val=0;
  71:.\IR.c        ****     uint i;
  72:.\IR.c        ****     
  73:.\IR.c        ****     wait_going_down();
 188              		.loc 1 73 0
 189 001c FFF7FEFF 		bl	wait_going_down
 190              	.LVL11:
  74:.\IR.c        ****     printf("START \r\n");
 191              		.loc 1 74 0
 192 0020 2248     		ldr	r0, .L23
 193 0022 FFF7FEFF 		bl	puts
 194              	.LVL12:
  75:.\IR.c        ****     
  76:.\IR.c        ****     for(i = 0; i < 33; i++)     // loop 33times ( 1bit - Start bit, 32bits - Databit)
 195              		.loc 1 76 0
 196 0026 12E0     		b	.L16
 197              	.LVL13:
 198              	.L19:
 199              	.LBB2:
  77:.\IR.c        ****     {
  78:.\IR.c        ****         int t1, t2;
  79:.\IR.c        ****         t1 = 0;
  80:.\IR.c        ****         t2 = 0;
  81:.\IR.c        ****         
  82:.\IR.c        ****         t1 = count_downtime();
 200              		.loc 1 82 0
 201 0028 FFF7FEFF 		bl	count_downtime
ARM GAS  C:\Users\ELEADM~1.000\AppData\Local\Temp\ccJpWt7I.s 			page 6


 202              	.LVL14:
 203 002c 0546     		mov	r5, r0
 204              	.LVL15:
  83:.\IR.c        ****         t2 = count_uptime();
 205              		.loc 1 83 0
 206 002e FFF7FEFF 		bl	count_uptime
 207              	.LVL16:
  84:.\IR.c        ****         
  85:.\IR.c        ****         // If up time is longer than down time, value of the bit becomes 1
  86:.\IR.c        ****         if(t2 > t1)
 208              		.loc 1 86 0
 209 0032 A842     		cmp	r0, r5
 210 0034 05DD     		ble	.L17
  87:.\IR.c        ****             bit[i]=1;
 211              		.loc 1 87 0
 212 0036 0122     		movs	r2, #1
 213 0038 0AAB     		add	r3, sp, #40
 214 003a 2344     		add	r3, r3, r4
 215 003c 03F8242C 		strb	r2, [r3, #-36]
 216 0040 04E0     		b	.L18
 217              	.L17:
  88:.\IR.c        ****         else
  89:.\IR.c        ****             bit[i]=0; 
 218              		.loc 1 89 0
 219 0042 0022     		movs	r2, #0
 220 0044 0AAB     		add	r3, sp, #40
 221 0046 2344     		add	r3, r3, r4
 222 0048 03F8242C 		strb	r2, [r3, #-36]
 223              	.L18:
 224              	.LBE2:
  76:.\IR.c        ****     {
 225              		.loc 1 76 0 discriminator 2
 226 004c 0134     		adds	r4, r4, #1
 227              	.LVL17:
 228              	.L16:
  76:.\IR.c        ****     {
 229              		.loc 1 76 0 is_stmt 0 discriminator 1
 230 004e 202C     		cmp	r4, #32
 231 0050 EAD9     		bls	.L19
 232 0052 0020     		movs	r0, #0
 233 0054 0546     		mov	r5, r0
 234 0056 23E0     		b	.L20
 235              	.LVL18:
 236              	.L21:
  90:.\IR.c        ****     } 
  91:.\IR.c        ****    
  92:.\IR.c        ****     /* // If you want to see binary value
  93:.\IR.c        ****     int cnt;
  94:.\IR.c        ****     for(cnt=0; cnt<33; cnt++)
  95:.\IR.c        ****     {
  96:.\IR.c        ****         printf("%d ",bit[cnt]);
  97:.\IR.c        ****     }
  98:.\IR.c        ****     printf("\r\n\n");
  99:.\IR.c        ****     */
 100:.\IR.c        ****    
 101:.\IR.c        ****     // make binary value to hex value
 102:.\IR.c        ****     for( i=0; i<32; i++)
ARM GAS  C:\Users\ELEADM~1.000\AppData\Local\Temp\ccJpWt7I.s 			page 7


 103:.\IR.c        ****         val += bit[i+1]*pow(2,i);
 237              		.loc 1 103 0 is_stmt 1 discriminator 3
 238 0058 441C     		adds	r4, r0, #1
 239 005a 0AAB     		add	r3, sp, #40
 240 005c 2344     		add	r3, r3, r4
 241 005e 13F8248C 		ldrb	r8, [r3, #-36]	@ zero_extendqisi2
 242 0062 FFF7FEFF 		bl	__aeabi_ui2d
 243              	.LVL19:
 244 0066 0246     		mov	r2, r0
 245 0068 0B46     		mov	r3, r1
 246 006a 0020     		movs	r0, #0
 247 006c 4FF08041 		mov	r1, #1073741824
 248 0070 FFF7FEFF 		bl	pow
 249              	.LVL20:
 250 0074 0646     		mov	r6, r0
 251 0076 0F46     		mov	r7, r1
 252 0078 4046     		mov	r0, r8
 253 007a FFF7FEFF 		bl	__aeabi_i2d
 254              	.LVL21:
 255 007e 3246     		mov	r2, r6
 256 0080 3B46     		mov	r3, r7
 257 0082 FFF7FEFF 		bl	__aeabi_dmul
 258              	.LVL22:
 259 0086 0646     		mov	r6, r0
 260 0088 0F46     		mov	r7, r1
 261 008a 2846     		mov	r0, r5
 262 008c FFF7FEFF 		bl	__aeabi_ui2d
 263              	.LVL23:
 264 0090 3246     		mov	r2, r6
 265 0092 3B46     		mov	r3, r7
 266 0094 FFF7FEFF 		bl	__aeabi_dadd
 267              	.LVL24:
 268 0098 FFF7FEFF 		bl	__aeabi_d2uiz
 269              	.LVL25:
 270 009c 0546     		mov	r5, r0
 271              	.LVL26:
 102:.\IR.c        ****         val += bit[i+1]*pow(2,i);
 272              		.loc 1 102 0 discriminator 3
 273 009e 2046     		mov	r0, r4
 274              	.LVL27:
 275              	.L20:
 102:.\IR.c        ****         val += bit[i+1]*pow(2,i);
 276              		.loc 1 102 0 is_stmt 0 discriminator 1
 277 00a0 1F28     		cmp	r0, #31
 278 00a2 D9D9     		bls	.L21
 104:.\IR.c        ****     
 105:.\IR.c        ****     return val;
 106:.\IR.c        **** }
 279              		.loc 1 106 0 is_stmt 1
 280 00a4 2846     		mov	r0, r5
 281              	.LVL28:
 282 00a6 0AB0     		add	sp, sp, #40
 283              		.cfi_def_cfa_offset 24
 284              		@ sp needed
 285 00a8 BDE8F081 		pop	{r4, r5, r6, r7, r8, pc}
 286              	.LVL29:
 287              	.L24:
ARM GAS  C:\Users\ELEADM~1.000\AppData\Local\Temp\ccJpWt7I.s 			page 8


 288              		.align	2
 289              	.L23:
 290 00ac 00000000 		.word	.LC0
 291              		.cfi_endproc
 292              	.LFE67:
 293              		.size	get_IR, .-get_IR
 294              		.section	.rodata.str1.4,"aMS",%progbits,1
 295              		.align	2
 296              	.LC0:
 297 0000 53544152 		.ascii	"START \015\000"
 297      54200D00 
 298              		.text
 299              	.Letext0:
 300              		.file 2 "c:\\program files (x86)\\cypress\\psoc creator\\3.3\\psoc creator\\import\\gnu\\arm\\4.9.
 301              		.file 3 "c:\\program files (x86)\\cypress\\psoc creator\\3.3\\psoc creator\\import\\gnu\\arm\\4.9.
 302              		.file 4 "Generated_Source\\PSoC5/cytypes.h"
 303              		.file 5 "c:\\program files (x86)\\cypress\\psoc creator\\3.3\\psoc creator\\import\\gnu\\arm\\4.9.
 304              		.file 6 "<built-in>"
 305              		.file 7 "Generated_Source\\PSoC5/core_cm3.h"
 306              		.file 8 "Generated_Source\\PSoC5/IR_receiver.h"
 307              		.file 9 "c:\\program files (x86)\\cypress\\psoc creator\\3.3\\psoc creator\\import\\gnu\\arm\\4.9.