ARM GAS  C:\Users\ELEADM~1.000\AppData\Local\Temp\ccd6XkCV.s 			page 1


   1              		.syntax unified
   2              		.cpu cortex-m3
   3              		.fpu softvfp
   4              		.eabi_attribute 20, 1
   5              		.eabi_attribute 21, 1
   6              		.eabi_attribute 23, 3
   7              		.eabi_attribute 24, 1
   8              		.eabi_attribute 25, 1
   9              		.eabi_attribute 26, 1
  10              		.eabi_attribute 30, 1
  11              		.eabi_attribute 34, 1
  12              		.eabi_attribute 18, 4
  13              		.thumb
  14              		.file	"Reflectance.c"
  15              		.text
  16              	.Ltext0:
  17              		.cfi_sections	.debug_frame
  18              		.section	.text.sensor_isr_handler,"ax",%progbits
  19              		.align	2
  20              		.global	sensor_isr_handler
  21              		.thumb
  22              		.thumb_func
  23              		.type	sensor_isr_handler, %function
  24              	sensor_isr_handler:
  25              	.LFB63:
  26              		.file 1 ".\\Reflectance.c"
   1:.\Reflectance.c **** /**
   2:.\Reflectance.c ****  * @file    Reflectance.c
   3:.\Reflectance.c ****  * @brief   Reflectance sensor method file
   4:.\Reflectance.c ****  * @details 
   5:.\Reflectance.c **** */
   6:.\Reflectance.c **** 
   7:.\Reflectance.c **** #include "Reflectance.h"
   8:.\Reflectance.c **** 
   9:.\Reflectance.c **** /**
  10:.\Reflectance.c **** * @brief    Reflectance Sensor Interrupt Handler
  11:.\Reflectance.c **** * @details  measure each sensors time to decide white or black
  12:.\Reflectance.c **** */
  13:.\Reflectance.c **** CY_ISR(sensor_isr_handler)
  14:.\Reflectance.c **** {
  27              		.loc 1 14 0
  28              		.cfi_startproc
  29              		@ args = 0, pretend = 0, frame = 0
  30              		@ frame_needed = 0, uses_anonymous_args = 0
  31 0000 F8B5     		push	{r3, r4, r5, r6, r7, lr}
  32              		.cfi_def_cfa_offset 24
  33              		.cfi_offset 3, -24
  34              		.cfi_offset 4, -20
  35              		.cfi_offset 5, -16
  36              		.cfi_offset 6, -12
  37              		.cfi_offset 7, -8
  38              		.cfi_offset 14, -4
  15:.\Reflectance.c ****     uint32_t statusRL = Timer_RL_ReadStatusRegister();
  39              		.loc 1 15 0
  40 0002 FFF7FEFF 		bl	Timer_RL_ReadStatusRegister
  41              	.LVL0:
  42 0006 0446     		mov	r4, r0
ARM GAS  C:\Users\ELEADM~1.000\AppData\Local\Temp\ccd6XkCV.s 			page 2


  43              	.LVL1:
  16:.\Reflectance.c ****     uint32_t statusRR = Timer_RR_ReadStatusRegister();
  44              		.loc 1 16 0
  45 0008 FFF7FEFF 		bl	Timer_RR_ReadStatusRegister
  46              	.LVL2:
  47 000c 0746     		mov	r7, r0
  48              	.LVL3:
  17:.\Reflectance.c ****     uint32_t statusLL = Timer_LL_ReadStatusRegister();
  49              		.loc 1 17 0
  50 000e FFF7FEFF 		bl	Timer_LL_ReadStatusRegister
  51              	.LVL4:
  52 0012 0646     		mov	r6, r0
  53              	.LVL5:
  18:.\Reflectance.c ****     uint32_t statusLR = Timer_LR_ReadStatusRegister();
  54              		.loc 1 18 0
  55 0014 FFF7FEFF 		bl	Timer_LR_ReadStatusRegister
  56              	.LVL6:
  57 0018 0546     		mov	r5, r0
  58              	.LVL7:
  19:.\Reflectance.c **** 
  20:.\Reflectance.c ****     if(statusRL & Timer_RL_STATUS_CAPTURE) {
  59              		.loc 1 20 0
  60 001a 14F0400F 		tst	r4, #64
  61 001e 09D0     		beq	.L2
  21:.\Reflectance.c ****         sensors.rl = Timer_RL_ReadPeriod() - Timer_RL_ReadCapture();
  62              		.loc 1 21 0
  63 0020 FFF7FEFF 		bl	Timer_RL_ReadPeriod
  64              	.LVL8:
  65 0024 0446     		mov	r4, r0
  66              	.LVL9:
  67 0026 FFF7FEFF 		bl	Timer_RL_ReadCapture
  68              	.LVL10:
  69 002a 201A     		subs	r0, r4, r0
  70 002c 80B2     		uxth	r0, r0
  71 002e 314B     		ldr	r3, .L11
  72 0030 9880     		strh	r0, [r3, #4]	@ movhi
  73 0032 03E0     		b	.L3
  74              	.LVL11:
  75              	.L2:
  22:.\Reflectance.c ****     }
  23:.\Reflectance.c ****     else {
  24:.\Reflectance.c ****         sensors.rl = Timer_RL_ReadPeriod();
  76              		.loc 1 24 0
  77 0034 FFF7FEFF 		bl	Timer_RL_ReadPeriod
  78              	.LVL12:
  79 0038 2E4B     		ldr	r3, .L11
  80 003a 9880     		strh	r0, [r3, #4]	@ movhi
  81              	.LVL13:
  82              	.L3:
  25:.\Reflectance.c ****     }
  26:.\Reflectance.c ****     
  27:.\Reflectance.c ****     if(statusRR & Timer_RR_STATUS_CAPTURE) {
  83              		.loc 1 27 0
  84 003c 17F0400F 		tst	r7, #64
  85 0040 09D0     		beq	.L4
  28:.\Reflectance.c ****         sensors.rr = Timer_RR_ReadPeriod() - Timer_RR_ReadCapture();
  86              		.loc 1 28 0
ARM GAS  C:\Users\ELEADM~1.000\AppData\Local\Temp\ccd6XkCV.s 			page 3


  87 0042 FFF7FEFF 		bl	Timer_RR_ReadPeriod
  88              	.LVL14:
  89 0046 0446     		mov	r4, r0
  90 0048 FFF7FEFF 		bl	Timer_RR_ReadCapture
  91              	.LVL15:
  92 004c 201A     		subs	r0, r4, r0
  93 004e 80B2     		uxth	r0, r0
  94 0050 284B     		ldr	r3, .L11
  95 0052 D880     		strh	r0, [r3, #6]	@ movhi
  96 0054 03E0     		b	.L5
  97              	.L4:
  29:.\Reflectance.c ****     }
  30:.\Reflectance.c ****     else {
  31:.\Reflectance.c ****         sensors.rr = Timer_RR_ReadPeriod();
  98              		.loc 1 31 0
  99 0056 FFF7FEFF 		bl	Timer_RR_ReadPeriod
 100              	.LVL16:
 101 005a 264B     		ldr	r3, .L11
 102 005c D880     		strh	r0, [r3, #6]	@ movhi
 103              	.L5:
  32:.\Reflectance.c ****     }
  33:.\Reflectance.c ****     
  34:.\Reflectance.c ****     if(statusLL & Timer_LL_STATUS_CAPTURE) {
 104              		.loc 1 34 0
 105 005e 16F0400F 		tst	r6, #64
 106 0062 09D0     		beq	.L6
  35:.\Reflectance.c ****         sensors.ll = Timer_LL_ReadPeriod() - Timer_LL_ReadCapture();
 107              		.loc 1 35 0
 108 0064 FFF7FEFF 		bl	Timer_LL_ReadPeriod
 109              	.LVL17:
 110 0068 0446     		mov	r4, r0
 111 006a FFF7FEFF 		bl	Timer_LL_ReadCapture
 112              	.LVL18:
 113 006e 201A     		subs	r0, r4, r0
 114 0070 80B2     		uxth	r0, r0
 115 0072 204B     		ldr	r3, .L11
 116 0074 1880     		strh	r0, [r3]	@ movhi
 117 0076 03E0     		b	.L7
 118              	.L6:
  36:.\Reflectance.c ****     }
  37:.\Reflectance.c ****     else {
  38:.\Reflectance.c ****         sensors.ll = Timer_LL_ReadPeriod();
 119              		.loc 1 38 0
 120 0078 FFF7FEFF 		bl	Timer_LL_ReadPeriod
 121              	.LVL19:
 122 007c 1D4B     		ldr	r3, .L11
 123 007e 1880     		strh	r0, [r3]	@ movhi
 124              	.L7:
  39:.\Reflectance.c ****     }
  40:.\Reflectance.c ****     
  41:.\Reflectance.c ****     if(statusLR & Timer_LR_STATUS_CAPTURE) {
 125              		.loc 1 41 0
 126 0080 15F0400F 		tst	r5, #64
 127 0084 09D0     		beq	.L8
  42:.\Reflectance.c ****         sensors.lr = Timer_LR_ReadPeriod() - Timer_LR_ReadCapture();
 128              		.loc 1 42 0
 129 0086 FFF7FEFF 		bl	Timer_LR_ReadPeriod
ARM GAS  C:\Users\ELEADM~1.000\AppData\Local\Temp\ccd6XkCV.s 			page 4


 130              	.LVL20:
 131 008a 0446     		mov	r4, r0
 132 008c FFF7FEFF 		bl	Timer_LR_ReadCapture
 133              	.LVL21:
 134 0090 201A     		subs	r0, r4, r0
 135 0092 80B2     		uxth	r0, r0
 136 0094 174B     		ldr	r3, .L11
 137 0096 5880     		strh	r0, [r3, #2]	@ movhi
 138 0098 03E0     		b	.L9
 139              	.L8:
  43:.\Reflectance.c ****     }
  44:.\Reflectance.c ****     else {
  45:.\Reflectance.c ****         sensors.lr = Timer_LR_ReadPeriod();
 140              		.loc 1 45 0
 141 009a FFF7FEFF 		bl	Timer_LR_ReadPeriod
 142              	.LVL22:
 143 009e 154B     		ldr	r3, .L11
 144 00a0 5880     		strh	r0, [r3, #2]	@ movhi
 145              	.L9:
  46:.\Reflectance.c ****     }
  47:.\Reflectance.c ****     
  48:.\Reflectance.c ****     RL_SetDriveMode(PIN_DM_STRONG);
 146              		.loc 1 48 0
 147 00a2 0C20     		movs	r0, #12
 148 00a4 FFF7FEFF 		bl	RL_SetDriveMode
 149              	.LVL23:
  49:.\Reflectance.c ****     RL_Write(1);
 150              		.loc 1 49 0
 151 00a8 0120     		movs	r0, #1
 152 00aa FFF7FEFF 		bl	RL_Write
 153              	.LVL24:
  50:.\Reflectance.c ****     RR_SetDriveMode(PIN_DM_STRONG);
 154              		.loc 1 50 0
 155 00ae 0C20     		movs	r0, #12
 156 00b0 FFF7FEFF 		bl	RR_SetDriveMode
 157              	.LVL25:
  51:.\Reflectance.c ****     RR_Write(1);
 158              		.loc 1 51 0
 159 00b4 0120     		movs	r0, #1
 160 00b6 FFF7FEFF 		bl	RR_Write
 161              	.LVL26:
  52:.\Reflectance.c ****     LL_SetDriveMode(PIN_DM_STRONG);
 162              		.loc 1 52 0
 163 00ba 0C20     		movs	r0, #12
 164 00bc FFF7FEFF 		bl	LL_SetDriveMode
 165              	.LVL27:
  53:.\Reflectance.c ****     LL_Write(1);
 166              		.loc 1 53 0
 167 00c0 0120     		movs	r0, #1
 168 00c2 FFF7FEFF 		bl	LL_Write
 169              	.LVL28:
  54:.\Reflectance.c ****     LR_SetDriveMode(PIN_DM_STRONG);
 170              		.loc 1 54 0
 171 00c6 0C20     		movs	r0, #12
 172 00c8 FFF7FEFF 		bl	LR_SetDriveMode
 173              	.LVL29:
  55:.\Reflectance.c ****     LR_Write(1);
ARM GAS  C:\Users\ELEADM~1.000\AppData\Local\Temp\ccd6XkCV.s 			page 5


 174              		.loc 1 55 0
 175 00cc 0120     		movs	r0, #1
 176 00ce FFF7FEFF 		bl	LR_Write
 177              	.LVL30:
  56:.\Reflectance.c ****     CyDelayUs(10);
 178              		.loc 1 56 0
 179 00d2 0A20     		movs	r0, #10
 180 00d4 FFF7FEFF 		bl	CyDelayUs
 181              	.LVL31:
  57:.\Reflectance.c ****     RL_SetDriveMode(PIN_DM_DIG_HIZ);
 182              		.loc 1 57 0
 183 00d8 0220     		movs	r0, #2
 184 00da FFF7FEFF 		bl	RL_SetDriveMode
 185              	.LVL32:
  58:.\Reflectance.c ****     RR_SetDriveMode(PIN_DM_DIG_HIZ);
 186              		.loc 1 58 0
 187 00de 0220     		movs	r0, #2
 188 00e0 FFF7FEFF 		bl	RR_SetDriveMode
 189              	.LVL33:
  59:.\Reflectance.c ****     LL_SetDriveMode(PIN_DM_DIG_HIZ);
 190              		.loc 1 59 0
 191 00e4 0220     		movs	r0, #2
 192 00e6 FFF7FEFF 		bl	LL_SetDriveMode
 193              	.LVL34:
  60:.\Reflectance.c ****     LR_SetDriveMode(PIN_DM_DIG_HIZ);
 194              		.loc 1 60 0
 195 00ea 0220     		movs	r0, #2
 196 00ec FFF7FEFF 		bl	LR_SetDriveMode
 197              	.LVL35:
 198 00f0 F8BD     		pop	{r3, r4, r5, r6, r7, pc}
 199              	.LVL36:
 200              	.L12:
 201 00f2 00BF     		.align	2
 202              	.L11:
 203 00f4 00000000 		.word	sensors
 204              		.cfi_endproc
 205              	.LFE63:
 206              		.size	sensor_isr_handler, .-sensor_isr_handler
 207              		.section	.text.Refelctance_Start,"ax",%progbits
 208              		.align	2
 209              		.global	Refelctance_Start
 210              		.thumb
 211              		.thumb_func
 212              		.type	Refelctance_Start, %function
 213              	Refelctance_Start:
 214              	.LFB64:
  61:.\Reflectance.c ****         
  62:.\Reflectance.c **** }
  63:.\Reflectance.c **** 
  64:.\Reflectance.c **** /**
  65:.\Reflectance.c **** * @brief    Start Reflectance Sensor
  66:.\Reflectance.c **** * @details 
  67:.\Reflectance.c **** */
  68:.\Reflectance.c **** void Refelctance_Start()
  69:.\Reflectance.c **** {
 215              		.loc 1 69 0
 216              		.cfi_startproc
ARM GAS  C:\Users\ELEADM~1.000\AppData\Local\Temp\ccd6XkCV.s 			page 6


 217              		@ args = 0, pretend = 0, frame = 0
 218              		@ frame_needed = 0, uses_anonymous_args = 0
 219 0000 08B5     		push	{r3, lr}
 220              		.cfi_def_cfa_offset 8
 221              		.cfi_offset 3, -8
 222              		.cfi_offset 14, -4
  70:.\Reflectance.c ****     Timer_RL_Start();
 223              		.loc 1 70 0
 224 0002 FFF7FEFF 		bl	Timer_RL_Start
 225              	.LVL37:
  71:.\Reflectance.c ****     Timer_RR_Start();
 226              		.loc 1 71 0
 227 0006 FFF7FEFF 		bl	Timer_RR_Start
 228              	.LVL38:
  72:.\Reflectance.c ****     Timer_LL_Start();
 229              		.loc 1 72 0
 230 000a FFF7FEFF 		bl	Timer_LL_Start
 231              	.LVL39:
  73:.\Reflectance.c ****     Timer_LR_Start();
 232              		.loc 1 73 0
 233 000e FFF7FEFF 		bl	Timer_LR_Start
 234              	.LVL40:
 235 0012 08BD     		pop	{r3, pc}
 236              		.cfi_endproc
 237              	.LFE64:
 238              		.size	Refelctance_Start, .-Refelctance_Start
 239              		.section	.text.reflectance_period,"ax",%progbits
 240              		.align	2
 241              		.global	reflectance_period
 242              		.thumb
 243              		.thumb_func
 244              		.type	reflectance_period, %function
 245              	reflectance_period:
 246              	.LFB65:
  74:.\Reflectance.c **** }
  75:.\Reflectance.c **** 
  76:.\Reflectance.c **** /**
  77:.\Reflectance.c **** * @brief    Print Reflectance Sensor's period value
  78:.\Reflectance.c **** * @details
  79:.\Reflectance.c **** */
  80:.\Reflectance.c **** void reflectance_period()
  81:.\Reflectance.c **** {
 247              		.loc 1 81 0
 248              		.cfi_startproc
 249              		@ args = 0, pretend = 0, frame = 0
 250              		@ frame_needed = 0, uses_anonymous_args = 0
 251 0000 00B5     		push	{lr}
 252              		.cfi_def_cfa_offset 4
 253              		.cfi_offset 14, -4
 254 0002 83B0     		sub	sp, sp, #12
 255              		.cfi_def_cfa_offset 16
  82:.\Reflectance.c ****      printf("%d %d %d %d \r\n", sensors.ll, sensors.lr, sensors.rl, sensors.rr); 
 256              		.loc 1 82 0
 257 0004 0748     		ldr	r0, .L17
 258 0006 0188     		ldrh	r1, [r0]
 259 0008 4288     		ldrh	r2, [r0, #2]
 260 000a 8388     		ldrh	r3, [r0, #4]
ARM GAS  C:\Users\ELEADM~1.000\AppData\Local\Temp\ccd6XkCV.s 			page 7


 261 000c C088     		ldrh	r0, [r0, #6]
 262 000e 80B2     		uxth	r0, r0
 263 0010 0090     		str	r0, [sp]
 264 0012 0548     		ldr	r0, .L17+4
 265 0014 89B2     		uxth	r1, r1
 266 0016 92B2     		uxth	r2, r2
 267 0018 9BB2     		uxth	r3, r3
 268 001a FFF7FEFF 		bl	printf
 269              	.LVL41:
  83:.\Reflectance.c **** }
 270              		.loc 1 83 0
 271 001e 03B0     		add	sp, sp, #12
 272              		.cfi_def_cfa_offset 4
 273              		@ sp needed
 274 0020 5DF804FB 		ldr	pc, [sp], #4
 275              	.L18:
 276              		.align	2
 277              	.L17:
 278 0024 00000000 		.word	sensors
 279 0028 00000000 		.word	.LC0
 280              		.cfi_endproc
 281              	.LFE65:
 282              		.size	reflectance_period, .-reflectance_period
 283              		.section	.text.reflectance_digital,"ax",%progbits
 284              		.align	2
 285              		.global	reflectance_digital
 286              		.thumb
 287              		.thumb_func
 288              		.type	reflectance_digital, %function
 289              	reflectance_digital:
 290              	.LFB66:
  84:.\Reflectance.c **** 
  85:.\Reflectance.c **** /**
  86:.\Reflectance.c **** * @brief    Make Reflectance Sensor's period to diigtal
  87:.\Reflectance.c **** * @details
  88:.\Reflectance.c **** */
  89:.\Reflectance.c **** void reflectance_digital()
  90:.\Reflectance.c **** {
 291              		.loc 1 90 0
 292              		.cfi_startproc
 293              		@ args = 0, pretend = 0, frame = 0
 294              		@ frame_needed = 0, uses_anonymous_args = 0
 295 0000 00B5     		push	{lr}
 296              		.cfi_def_cfa_offset 4
 297              		.cfi_offset 14, -4
 298 0002 83B0     		sub	sp, sp, #12
 299              		.cfi_def_cfa_offset 16
  91:.\Reflectance.c ****     //if the results of reflectance_period function is over 10000, set digital_sensor_value to 0, w
  92:.\Reflectance.c ****     if(sensors.ll > 10000)
 300              		.loc 1 92 0
 301 0004 234B     		ldr	r3, .L29
 302 0006 1B88     		ldrh	r3, [r3]
 303 0008 9BB2     		uxth	r3, r3
 304 000a 42F21072 		movw	r2, #10000
 305 000e 9342     		cmp	r3, r2
 306 0010 03D9     		bls	.L20
  93:.\Reflectance.c ****         digital_sensor_value.ll  = 0;
ARM GAS  C:\Users\ELEADM~1.000\AppData\Local\Temp\ccd6XkCV.s 			page 8


 307              		.loc 1 93 0
 308 0012 0022     		movs	r2, #0
 309 0014 204B     		ldr	r3, .L29+4
 310 0016 1A80     		strh	r2, [r3]	@ movhi
 311 0018 02E0     		b	.L21
 312              	.L20:
  94:.\Reflectance.c ****     else
  95:.\Reflectance.c ****         digital_sensor_value.ll  = 1;
 313              		.loc 1 95 0
 314 001a 0122     		movs	r2, #1
 315 001c 1E4B     		ldr	r3, .L29+4
 316 001e 1A80     		strh	r2, [r3]	@ movhi
 317              	.L21:
  96:.\Reflectance.c ****     if(sensors.lr > 10000)
 318              		.loc 1 96 0
 319 0020 1C4B     		ldr	r3, .L29
 320 0022 5B88     		ldrh	r3, [r3, #2]
 321 0024 9BB2     		uxth	r3, r3
 322 0026 42F21072 		movw	r2, #10000
 323 002a 9342     		cmp	r3, r2
 324 002c 03D9     		bls	.L22
  97:.\Reflectance.c ****         digital_sensor_value.lr  = 0;
 325              		.loc 1 97 0
 326 002e 0022     		movs	r2, #0
 327 0030 194B     		ldr	r3, .L29+4
 328 0032 5A80     		strh	r2, [r3, #2]	@ movhi
 329 0034 02E0     		b	.L23
 330              	.L22:
  98:.\Reflectance.c ****     else
  99:.\Reflectance.c ****         digital_sensor_value.lr  = 1;
 331              		.loc 1 99 0
 332 0036 0122     		movs	r2, #1
 333 0038 174B     		ldr	r3, .L29+4
 334 003a 5A80     		strh	r2, [r3, #2]	@ movhi
 335              	.L23:
 100:.\Reflectance.c ****     if(sensors.rl > 10000)
 336              		.loc 1 100 0
 337 003c 154B     		ldr	r3, .L29
 338 003e 9B88     		ldrh	r3, [r3, #4]
 339 0040 9BB2     		uxth	r3, r3
 340 0042 42F21072 		movw	r2, #10000
 341 0046 9342     		cmp	r3, r2
 342 0048 03D9     		bls	.L24
 101:.\Reflectance.c ****         digital_sensor_value.rl  = 0;
 343              		.loc 1 101 0
 344 004a 0022     		movs	r2, #0
 345 004c 124B     		ldr	r3, .L29+4
 346 004e 9A80     		strh	r2, [r3, #4]	@ movhi
 347 0050 02E0     		b	.L25
 348              	.L24:
 102:.\Reflectance.c ****     else
 103:.\Reflectance.c ****         digital_sensor_value.rl  = 1;
 349              		.loc 1 103 0
 350 0052 0122     		movs	r2, #1
 351 0054 104B     		ldr	r3, .L29+4
 352 0056 9A80     		strh	r2, [r3, #4]	@ movhi
 353              	.L25:
ARM GAS  C:\Users\ELEADM~1.000\AppData\Local\Temp\ccd6XkCV.s 			page 9


 104:.\Reflectance.c ****     if(sensors.rr > 10000)
 354              		.loc 1 104 0
 355 0058 0E4B     		ldr	r3, .L29
 356 005a DB88     		ldrh	r3, [r3, #6]
 357 005c 9BB2     		uxth	r3, r3
 358 005e 42F21072 		movw	r2, #10000
 359 0062 9342     		cmp	r3, r2
 360 0064 03D9     		bls	.L26
 105:.\Reflectance.c ****         digital_sensor_value.rr  = 0;
 361              		.loc 1 105 0
 362 0066 0022     		movs	r2, #0
 363 0068 0B4B     		ldr	r3, .L29+4
 364 006a DA80     		strh	r2, [r3, #6]	@ movhi
 365 006c 02E0     		b	.L27
 366              	.L26:
 106:.\Reflectance.c ****     else
 107:.\Reflectance.c ****         digital_sensor_value.rr  = 1;
 367              		.loc 1 107 0
 368 006e 0122     		movs	r2, #1
 369 0070 094B     		ldr	r3, .L29+4
 370 0072 DA80     		strh	r2, [r3, #6]	@ movhi
 371              	.L27:
 108:.\Reflectance.c ****         
 109:.\Reflectance.c ****    //print out the results
 110:.\Reflectance.c ****    printf("%d %d %d %d \r\n", digital_sensor_value.ll, digital_sensor_value.lr, digital_sensor_valu
 372              		.loc 1 110 0
 373 0074 0848     		ldr	r0, .L29+4
 374 0076 0188     		ldrh	r1, [r0]
 375 0078 4288     		ldrh	r2, [r0, #2]
 376 007a 8388     		ldrh	r3, [r0, #4]
 377 007c C088     		ldrh	r0, [r0, #6]
 378 007e 80B2     		uxth	r0, r0
 379 0080 0090     		str	r0, [sp]
 380 0082 0648     		ldr	r0, .L29+8
 381 0084 89B2     		uxth	r1, r1
 382 0086 92B2     		uxth	r2, r2
 383 0088 9BB2     		uxth	r3, r3
 384 008a FFF7FEFF 		bl	printf
 385              	.LVL42:
 111:.\Reflectance.c **** }
 386              		.loc 1 111 0
 387 008e 03B0     		add	sp, sp, #12
 388              		.cfi_def_cfa_offset 4
 389              		@ sp needed
 390 0090 5DF804FB 		ldr	pc, [sp], #4
 391              	.L30:
 392              		.align	2
 393              	.L29:
 394 0094 00000000 		.word	sensors
 395 0098 00000000 		.word	digital_sensor_value
 396 009c 00000000 		.word	.LC0
 397              		.cfi_endproc
 398              	.LFE66:
 399              		.size	reflectance_digital, .-reflectance_digital
 400              		.comm	digital_sensor_value,8,4
 401              		.comm	sensors,8,4
 402              		.section	.rodata.str1.4,"aMS",%progbits,1
ARM GAS  C:\Users\ELEADM~1.000\AppData\Local\Temp\ccd6XkCV.s 			page 10


 403              		.align	2
 404              	.LC0:
 405 0000 25642025 		.ascii	"%d %d %d %d \015\012\000"
 405      64202564 
 405      20256420 
 405      0D0A00
 406 000f 00       		.text
 407              	.Letext0:
 408              		.file 2 "c:\\program files (x86)\\cypress\\psoc creator\\3.3\\psoc creator\\import\\gnu\\arm\\4.9.
 409              		.file 3 "c:\\program files (x86)\\cypress\\psoc creator\\3.3\\psoc creator\\import\\gnu\\arm\\4.9.
 410              		.file 4 "Generated_Source\\PSoC5/cytypes.h"
 411              		.file 5 ".\\Reflectance.h"
 412              		.file 6 "Generated_Source\\PSoC5/core_cm3.h"
 413              		.file 7 "Generated_Source\\PSoC5/Timer_RL.h"
 414              		.file 8 "Generated_Source\\PSoC5/Timer_RR.h"
 415              		.file 9 "Generated_Source\\PSoC5/Timer_LL.h"
 416              		.file 10 "Generated_Source\\PSoC5/Timer_LR.h"
 417              		.file 11 "Generated_Source\\PSoC5/RL.h"
 418              		.file 12 "Generated_Source\\PSoC5/RR.h"
 419              		.file 13 "Generated_Source\\PSoC5/LL.h"
 420              		.file 14 "Generated_Source\\PSoC5/LR.h"
 421              		.file 15 "Generated_Source\\PSoC5/CyLib.h"
 422              		.file 16 "c:\\program files (x86)\\cypress\\psoc creator\\3.3\\psoc creator\\import\\gnu\\arm\\4.9