ARM GAS  C:\Users\ELEADM~1.000\AppData\Local\Temp\ccpE8seQ.s 			page 1


   1              		.syntax unified
   2              		.cpu cortex-m3
   3              		.fpu softvfp
   4              		.eabi_attribute 20, 1
   5              		.eabi_attribute 21, 1
   6              		.eabi_attribute 23, 3
   7              		.eabi_attribute 24, 1
   8              		.eabi_attribute 25, 1
   9              		.eabi_attribute 26, 1
  10              		.eabi_attribute 30, 1
  11              		.eabi_attribute 34, 1
  12              		.eabi_attribute 18, 4
  13              		.thumb
  14              		.file	"Ultra.c"
  15              		.text
  16              	.Ltext0:
  17              		.cfi_sections	.debug_frame
  18              		.global	__aeabi_ui2f
  19              		.global	__aeabi_fdiv
  20              		.global	__aeabi_fsub
  21              		.global	__aeabi_fmul
  22              		.global	__aeabi_f2iz
  23              		.section	.text.ultra_isr_handler,"ax",%progbits
  24              		.align	2
  25              		.global	ultra_isr_handler
  26              		.thumb
  27              		.thumb_func
  28              		.type	ultra_isr_handler, %function
  29              	ultra_isr_handler:
  30              	.LFB63:
  31              		.file 1 ".\\Ultra.c"
   1:.\Ultra.c     **** /**
   2:.\Ultra.c     ****  * @file    Ultra.c
   3:.\Ultra.c     ****  * @brief   Ultra sonic sensor method file
   4:.\Ultra.c     ****  * @details 
   5:.\Ultra.c     **** */
   6:.\Ultra.c     **** 
   7:.\Ultra.c     **** #include "Ultra.h"
   8:.\Ultra.c     **** 
   9:.\Ultra.c     **** uint16_t i = 0;
  10:.\Ultra.c     **** float distance = 0;
  11:.\Ultra.c     **** float cent = 0;
  12:.\Ultra.c     **** 
  13:.\Ultra.c     **** /**
  14:.\Ultra.c     **** * @brief    Ultra Sonic Sensor Interrupt Handler
  15:.\Ultra.c     **** * @details  measure reflecting time to decide distance between Zumobot and obstacle
  16:.\Ultra.c     **** */
  17:.\Ultra.c     **** CY_ISR(ultra_isr_handler)
  18:.\Ultra.c     **** {
  32              		.loc 1 18 0
  33              		.cfi_startproc
  34              		@ args = 0, pretend = 0, frame = 0
  35              		@ frame_needed = 0, uses_anonymous_args = 0
  36 0000 38B5     		push	{r3, r4, r5, lr}
  37              		.cfi_def_cfa_offset 16
  38              		.cfi_offset 3, -16
  39              		.cfi_offset 4, -12
ARM GAS  C:\Users\ELEADM~1.000\AppData\Local\Temp\ccpE8seQ.s 			page 2


  40              		.cfi_offset 5, -8
  41              		.cfi_offset 14, -4
  19:.\Ultra.c     ****     Timer_Stop();
  42              		.loc 1 19 0
  43 0002 FFF7FEFF 		bl	Timer_Stop
  44              	.LVL0:
  20:.\Ultra.c     ****     
  21:.\Ultra.c     ****     Timer_ReadStatusRegister();
  45              		.loc 1 21 0
  46 0006 FFF7FEFF 		bl	Timer_ReadStatusRegister
  47              	.LVL1:
  22:.\Ultra.c     ****     
  23:.\Ultra.c     ****     if(!Echo_Read()) {
  48              		.loc 1 23 0
  49 000a FFF7FEFF 		bl	Echo_Read
  50              	.LVL2:
  51 000e 00BB     		cbnz	r0, .L2
  24:.\Ultra.c     ****         i = Timer_ReadCounter();            // Read counter value of Timer
  52              		.loc 1 24 0
  53 0010 FFF7FEFF 		bl	Timer_ReadCounter
  54              	.LVL3:
  55 0014 0546     		mov	r5, r0
  56 0016 124C     		ldr	r4, .L5
  57 0018 2080     		strh	r0, [r4]	@ movhi
  25:.\Ultra.c     ****         distance = (float)i / 58;           // us / 58 = centimeters
  58              		.loc 1 25 0
  59 001a FFF7FEFF 		bl	__aeabi_ui2f
  60              	.LVL4:
  61 001e 1149     		ldr	r1, .L5+4
  62 0020 FFF7FEFF 		bl	__aeabi_fdiv
  63              	.LVL5:
  64 0024 6060     		str	r0, [r4, #4]	@ float
  26:.\Ultra.c     ****         cent = 5 * (distance - 11) / 3;     // calibration for this Timer(650 kHz)
  65              		.loc 1 26 0
  66 0026 1049     		ldr	r1, .L5+8
  67 0028 FFF7FEFF 		bl	__aeabi_fsub
  68              	.LVL6:
  69 002c 0F49     		ldr	r1, .L5+12
  70 002e FFF7FEFF 		bl	__aeabi_fmul
  71              	.LVL7:
  72 0032 0F49     		ldr	r1, .L5+16
  73 0034 FFF7FEFF 		bl	__aeabi_fdiv
  74              	.LVL8:
  75 0038 A060     		str	r0, [r4, #8]	@ float
  27:.\Ultra.c     ****         printf("i = %6d, distance = %4d                \r\n", i, (int)cent);
  76              		.loc 1 27 0
  77 003a FFF7FEFF 		bl	__aeabi_f2iz
  78              	.LVL9:
  79 003e 0246     		mov	r2, r0
  80 0040 0C48     		ldr	r0, .L5+20
  81 0042 2946     		mov	r1, r5
  82 0044 FFF7FEFF 		bl	printf
  83              	.LVL10:
  28:.\Ultra.c     ****         Timer_WriteCounter(0xFFFF);         // Counter initialization
  84              		.loc 1 28 0
  85 0048 4FF6FF70 		movw	r0, #65535
  86 004c FFF7FEFF 		bl	Timer_WriteCounter
ARM GAS  C:\Users\ELEADM~1.000\AppData\Local\Temp\ccpE8seQ.s 			page 3


  87              	.LVL11:
  88 0050 03E0     		b	.L3
  89              	.L2:
  29:.\Ultra.c     ****     }
  30:.\Ultra.c     ****     else {
  31:.\Ultra.c     ****         
  32:.\Ultra.c     ****          Timer_WriteCounter(0xFFFF);
  90              		.loc 1 32 0
  91 0052 4FF6FF70 		movw	r0, #65535
  92 0056 FFF7FEFF 		bl	Timer_WriteCounter
  93              	.LVL12:
  94              	.L3:
  33:.\Ultra.c     ****     }
  34:.\Ultra.c     ****     Timer_Start();
  95              		.loc 1 34 0
  96 005a FFF7FEFF 		bl	Timer_Start
  97              	.LVL13:
  98 005e 38BD     		pop	{r3, r4, r5, pc}
  99              	.L6:
 100              		.align	2
 101              	.L5:
 102 0060 00000000 		.word	.LANCHOR0
 103 0064 00006842 		.word	1114112000
 104 0068 00003041 		.word	1093664768
 105 006c 0000A040 		.word	1084227584
 106 0070 00004040 		.word	1077936128
 107 0074 00000000 		.word	.LC0
 108              		.cfi_endproc
 109              	.LFE63:
 110              		.size	ultra_isr_handler, .-ultra_isr_handler
 111              		.section	.text.Ultra_Start,"ax",%progbits
 112              		.align	2
 113              		.global	Ultra_Start
 114              		.thumb
 115              		.thumb_func
 116              		.type	Ultra_Start, %function
 117              	Ultra_Start:
 118              	.LFB64:
  35:.\Ultra.c     **** }
  36:.\Ultra.c     **** 
  37:.\Ultra.c     **** /**
  38:.\Ultra.c     **** * @brief    Start Ultra Sonic Sensor
  39:.\Ultra.c     **** * @details  
  40:.\Ultra.c     **** */
  41:.\Ultra.c     **** void Ultra_Start()
  42:.\Ultra.c     **** {
 119              		.loc 1 42 0
 120              		.cfi_startproc
 121              		@ args = 0, pretend = 0, frame = 0
 122              		@ frame_needed = 0, uses_anonymous_args = 0
 123 0000 08B5     		push	{r3, lr}
 124              		.cfi_def_cfa_offset 8
 125              		.cfi_offset 3, -8
 126              		.cfi_offset 14, -4
  43:.\Ultra.c     ****     Timer_Start();
 127              		.loc 1 43 0
 128 0002 FFF7FEFF 		bl	Timer_Start
ARM GAS  C:\Users\ELEADM~1.000\AppData\Local\Temp\ccpE8seQ.s 			page 4


 129              	.LVL14:
 130 0006 08BD     		pop	{r3, pc}
 131              		.cfi_endproc
 132              	.LFE64:
 133              		.size	Ultra_Start, .-Ultra_Start
 134              		.global	cent
 135              		.global	distance
 136              		.global	i
 137              		.section	.rodata.str1.4,"aMS",%progbits,1
 138              		.align	2
 139              	.LC0:
 140 0000 69203D20 		.ascii	"i = %6d, distance = %4d                \015\012\000"
 140      2536642C 
 140      20646973 
 140      74616E63 
 140      65203D20 
 141 002a 0000     		.bss
 142              		.align	2
 143              		.set	.LANCHOR0,. + 0
 144              		.type	i, %object
 145              		.size	i, 2
 146              	i:
 147 0000 0000     		.space	2
 148 0002 0000     		.space	2
 149              		.type	distance, %object
 150              		.size	distance, 4
 151              	distance:
 152 0004 00000000 		.space	4
 153              		.type	cent, %object
 154              		.size	cent, 4
 155              	cent:
 156 0008 00000000 		.space	4
 157              		.text
 158              	.Letext0:
 159              		.file 2 "c:\\program files (x86)\\cypress\\psoc creator\\3.3\\psoc creator\\import\\gnu\\arm\\4.9.
 160              		.file 3 "c:\\program files (x86)\\cypress\\psoc creator\\3.3\\psoc creator\\import\\gnu\\arm\\4.9.
 161              		.file 4 "Generated_Source\\PSoC5/cytypes.h"
 162              		.file 5 "Generated_Source\\PSoC5/core_cm3.h"
 163              		.file 6 "Generated_Source\\PSoC5/Timer.h"
 164              		.file 7 "Generated_Source\\PSoC5/Echo.h"
 165              		.file 8 "c:\\program files (x86)\\cypress\\psoc creator\\3.3\\psoc creator\\import\\gnu\\arm\\4.9.