ARM GAS  C:\Users\dufma\AppData\Local\Temp\ccBAnx1d.s 			page 1


   1              		.syntax unified
   2              		.cpu cortex-m3
   3              		.fpu softvfp
   4              		.eabi_attribute 20, 1
   5              		.eabi_attribute 21, 1
   6              		.eabi_attribute 23, 3
   7              		.eabi_attribute 24, 1
   8              		.eabi_attribute 25, 1
   9              		.eabi_attribute 26, 1
  10              		.eabi_attribute 30, 1
  11              		.eabi_attribute 34, 1
  12              		.eabi_attribute 18, 4
  13              		.thumb
  14              		.file	"Accel.c"
  15              		.text
  16              	.Ltext0:
  17              		.cfi_sections	.debug_frame
  18              		.global	__aeabi_ui2d
  19              		.global	__aeabi_dadd
  20              		.global	__aeabi_d2f
  21              		.global	__aeabi_fmul
  22              		.global	__aeabi_f2d
  23              		.global	__aeabi_ddiv
  24              		.section	.text.value_convert_accel,"ax",%progbits
  25              		.align	2
  26              		.global	value_convert_accel
  27              		.thumb
  28              		.thumb_func
  29              		.type	value_convert_accel, %function
  30              	value_convert_accel:
  31              	.LFB63:
  32              		.file 1 ".\\Accel.c"
   1:.\Accel.c     **** /**
   2:.\Accel.c     ****  * @file    Accel.c
   3:.\Accel.c     ****  * @brief   Accelerometer method file
   4:.\Accel.c     ****  * @details 
   5:.\Accel.c     **** */
   6:.\Accel.c     **** 
   7:.\Accel.c     **** #include <project.h>
   8:.\Accel.c     **** #include <math.h>
   9:.\Accel.c     **** #include <accel_magnet.h>
  10:.\Accel.c     **** #include <stdio.h>
  11:.\Accel.c     **** 
  12:.\Accel.c     **** /**
  13:.\Accel.c     **** * @brief    Convert raw value
  14:.\Accel.c     **** * @details  convert raw value to real value
  15:.\Accel.c     **** * @param    uint16 X_AXIS : X axis value
  16:.\Accel.c     **** * @param    uint16 Y_AXIS : Y axis value
  17:.\Accel.c     **** * @param    uint16 Z_AXIS : Z axis value
  18:.\Accel.c     **** */
  19:.\Accel.c     **** void value_convert_accel(uint16 X_AXIS, uint16 Y_AXIS, uint16 Z_AXIS)
  20:.\Accel.c     **** {
  33              		.loc 1 20 0
  34              		.cfi_startproc
  35              		@ args = 0, pretend = 0, frame = 0
  36              		@ frame_needed = 0, uses_anonymous_args = 0
  37              	.LVL0:
ARM GAS  C:\Users\dufma\AppData\Local\Temp\ccBAnx1d.s 			page 2


  38 0000 2DE9F041 		push	{r4, r5, r6, r7, r8, lr}
  39              		.cfi_def_cfa_offset 24
  40              		.cfi_offset 4, -24
  41              		.cfi_offset 5, -20
  42              		.cfi_offset 6, -16
  43              		.cfi_offset 7, -12
  44              		.cfi_offset 8, -8
  45              		.cfi_offset 14, -4
  46 0004 82B0     		sub	sp, sp, #8
  47              		.cfi_def_cfa_offset 32
  48 0006 8046     		mov	r8, r0
  49 0008 0E46     		mov	r6, r1
  21:.\Accel.c     ****     double AccXangle, AccYangle;
  22:.\Accel.c     ****    
  23:.\Accel.c     ****     AccXangle = (float) (atan2(Y_AXIS, Z_AXIS)+M_PI) *180 / M_PI;
  50              		.loc 1 23 0
  51 000a 1046     		mov	r0, r2
  52              	.LVL1:
  53 000c FFF7FEFF 		bl	__aeabi_ui2d
  54              	.LVL2:
  55 0010 0446     		mov	r4, r0
  56 0012 0D46     		mov	r5, r1
  57 0014 3046     		mov	r0, r6
  58 0016 FFF7FEFF 		bl	__aeabi_ui2d
  59              	.LVL3:
  60 001a 2246     		mov	r2, r4
  61 001c 2B46     		mov	r3, r5
  62 001e FFF7FEFF 		bl	atan2
  63              	.LVL4:
  64 0022 1BA3     		adr	r3, .L3
  65 0024 D3E90023 		ldrd	r2, [r3]
  66 0028 FFF7FEFF 		bl	__aeabi_dadd
  67              	.LVL5:
  68 002c FFF7FEFF 		bl	__aeabi_d2f
  69              	.LVL6:
  70 0030 1949     		ldr	r1, .L3+8
  71 0032 FFF7FEFF 		bl	__aeabi_fmul
  72              	.LVL7:
  73 0036 FFF7FEFF 		bl	__aeabi_f2d
  74              	.LVL8:
  75 003a 15A3     		adr	r3, .L3
  76 003c D3E90023 		ldrd	r2, [r3]
  77 0040 FFF7FEFF 		bl	__aeabi_ddiv
  78              	.LVL9:
  79 0044 0646     		mov	r6, r0
  80 0046 0F46     		mov	r7, r1
  81              	.LVL10:
  24:.\Accel.c     ****     AccYangle = (float) (atan2(Z_AXIS, X_AXIS)+M_PI) *180 / M_PI;
  82              		.loc 1 24 0
  83 0048 4046     		mov	r0, r8
  84 004a FFF7FEFF 		bl	__aeabi_ui2d
  85              	.LVL11:
  86 004e 0246     		mov	r2, r0
  87 0050 0B46     		mov	r3, r1
  88 0052 2046     		mov	r0, r4
  89 0054 2946     		mov	r1, r5
  90 0056 FFF7FEFF 		bl	atan2
ARM GAS  C:\Users\dufma\AppData\Local\Temp\ccBAnx1d.s 			page 3


  91              	.LVL12:
  92 005a 0DA3     		adr	r3, .L3
  93 005c D3E90023 		ldrd	r2, [r3]
  94 0060 FFF7FEFF 		bl	__aeabi_dadd
  95              	.LVL13:
  96 0064 FFF7FEFF 		bl	__aeabi_d2f
  97              	.LVL14:
  98 0068 0B49     		ldr	r1, .L3+8
  99 006a FFF7FEFF 		bl	__aeabi_fmul
 100              	.LVL15:
 101 006e FFF7FEFF 		bl	__aeabi_f2d
 102              	.LVL16:
 103 0072 07A3     		adr	r3, .L3
 104 0074 D3E90023 		ldrd	r2, [r3]
 105 0078 FFF7FEFF 		bl	__aeabi_ddiv
 106              	.LVL17:
  25:.\Accel.c     ****     
  26:.\Accel.c     ****     printf("%7.3f %7.3f \r\n", AccXangle, AccYangle);
 107              		.loc 1 26 0
 108 007c CDE90001 		strd	r0, [sp]
 109 0080 0648     		ldr	r0, .L3+12
 110              	.LVL18:
 111 0082 3246     		mov	r2, r6
 112 0084 3B46     		mov	r3, r7
 113 0086 FFF7FEFF 		bl	printf
 114              	.LVL19:
  27:.\Accel.c     **** }
 115              		.loc 1 27 0
 116 008a 02B0     		add	sp, sp, #8
 117              		.cfi_def_cfa_offset 24
 118              		@ sp needed
 119 008c BDE8F081 		pop	{r4, r5, r6, r7, r8, pc}
 120              	.LVL20:
 121              	.L4:
 122              		.align	3
 123              	.L3:
 124 0090 182D4454 		.word	1413754136
 125 0094 FB210940 		.word	1074340347
 126 0098 00003443 		.word	1127481344
 127 009c 00000000 		.word	.LC0
 128              		.cfi_endproc
 129              	.LFE63:
 130              		.size	value_convert_accel, .-value_convert_accel
 131              		.section	.rodata.str1.4,"aMS",%progbits,1
 132              		.align	2
 133              	.LC0:
 134 0000 25372E33 		.ascii	"%7.3f %7.3f \015\012\000"
 134      66202537 
 134      2E336620 
 134      0D0A00
 135 000f 00       		.text
 136              	.Letext0:
 137              		.file 2 "c:\\program files (x86)\\cypress\\psoc creator\\3.3\\psoc creator\\import\\gnu\\arm\\4.9.
 138              		.file 3 "c:\\program files (x86)\\cypress\\psoc creator\\3.3\\psoc creator\\import\\gnu\\arm\\4.9.
 139              		.file 4 "Generated_Source\\PSoC5/cytypes.h"
 140              		.file 5 "Generated_Source\\PSoC5/core_cm3.h"
 141              		.file 6 "c:\\program files (x86)\\cypress\\psoc creator\\3.3\\psoc creator\\import\\gnu\\arm\\4.9.
ARM GAS  C:\Users\dufma\AppData\Local\Temp\ccBAnx1d.s 			page 4


 142              		.file 7 "c:\\program files (x86)\\cypress\\psoc creator\\3.3\\psoc creator\\import\\gnu\\arm\\4.9.