ARM GAS  C:\Users\dufma\AppData\Local\Temp\ccN4cuig.s 			page 1


   1              		.syntax unified
   2              		.cpu cortex-m3
   3              		.fpu softvfp
   4              		.eabi_attribute 20, 1
   5              		.eabi_attribute 21, 1
   6              		.eabi_attribute 23, 3
   7              		.eabi_attribute 24, 1
   8              		.eabi_attribute 25, 1
   9              		.eabi_attribute 26, 1
  10              		.eabi_attribute 30, 1
  11              		.eabi_attribute 34, 1
  12              		.eabi_attribute 18, 4
  13              		.thumb
  14              		.file	"cyfitter_cfg.c"
  15              		.text
  16              	.Ltext0:
  17              		.cfi_sections	.debug_frame
  18              		.section	.text.CyClockStartupError,"ax",%progbits
  19              		.align	2
  20              		.thumb
  21              		.thumb_func
  22              		.type	CyClockStartupError, %function
  23              	CyClockStartupError:
  24              	.LFB3:
  25              		.file 1 ".\\Generated_Source\\PSoC5\\cyfitter_cfg.c"
   1:.\Generated_Source\PSoC5/cyfitter_cfg.c **** /*******************************************************************************
   2:.\Generated_Source\PSoC5/cyfitter_cfg.c **** * File Name: cyfitter_cfg.c
   3:.\Generated_Source\PSoC5/cyfitter_cfg.c **** * 
   4:.\Generated_Source\PSoC5/cyfitter_cfg.c **** * PSoC Creator  3.3 CP3
   5:.\Generated_Source\PSoC5/cyfitter_cfg.c **** *
   6:.\Generated_Source\PSoC5/cyfitter_cfg.c **** * Description:
   7:.\Generated_Source\PSoC5/cyfitter_cfg.c **** * This file contains device initialization code.
   8:.\Generated_Source\PSoC5/cyfitter_cfg.c **** * Except for the user defined sections in CyClockStartupError(), this file should not be modified.
   9:.\Generated_Source\PSoC5/cyfitter_cfg.c **** * This file is automatically generated by PSoC Creator.
  10:.\Generated_Source\PSoC5/cyfitter_cfg.c **** *
  11:.\Generated_Source\PSoC5/cyfitter_cfg.c **** ********************************************************************************
  12:.\Generated_Source\PSoC5/cyfitter_cfg.c **** * Copyright (c) 2007-2016 Cypress Semiconductor.  All rights reserved.
  13:.\Generated_Source\PSoC5/cyfitter_cfg.c **** * You may use this file only in accordance with the license, terms, conditions, 
  14:.\Generated_Source\PSoC5/cyfitter_cfg.c **** * disclaimers, and limitations in the end user license agreement accompanying 
  15:.\Generated_Source\PSoC5/cyfitter_cfg.c **** * the software package with which this file was provided.
  16:.\Generated_Source\PSoC5/cyfitter_cfg.c **** ********************************************************************************/
  17:.\Generated_Source\PSoC5/cyfitter_cfg.c **** 
  18:.\Generated_Source\PSoC5/cyfitter_cfg.c **** #include <string.h>
  19:.\Generated_Source\PSoC5/cyfitter_cfg.c **** #include "cytypes.h"
  20:.\Generated_Source\PSoC5/cyfitter_cfg.c **** #include "cydevice_trm.h"
  21:.\Generated_Source\PSoC5/cyfitter_cfg.c **** #include "cyfitter.h"
  22:.\Generated_Source\PSoC5/cyfitter_cfg.c **** #include "CyLib.h"
  23:.\Generated_Source\PSoC5/cyfitter_cfg.c **** #include "cyfitter_cfg.h"
  24:.\Generated_Source\PSoC5/cyfitter_cfg.c **** 
  25:.\Generated_Source\PSoC5/cyfitter_cfg.c **** #define CY_NEED_CYCLOCKSTARTUPERROR 1
  26:.\Generated_Source\PSoC5/cyfitter_cfg.c **** 
  27:.\Generated_Source\PSoC5/cyfitter_cfg.c **** 
  28:.\Generated_Source\PSoC5/cyfitter_cfg.c **** #if defined(__GNUC__) || defined(__ARMCC_VERSION)
  29:.\Generated_Source\PSoC5/cyfitter_cfg.c ****     #define CYPACKED 
  30:.\Generated_Source\PSoC5/cyfitter_cfg.c ****     #define CYPACKED_ATTR __attribute__ ((packed))
  31:.\Generated_Source\PSoC5/cyfitter_cfg.c ****     #define CYALIGNED __attribute__ ((aligned))
  32:.\Generated_Source\PSoC5/cyfitter_cfg.c ****     #define CY_CFG_UNUSED __attribute__ ((unused))
ARM GAS  C:\Users\dufma\AppData\Local\Temp\ccN4cuig.s 			page 2


  33:.\Generated_Source\PSoC5/cyfitter_cfg.c ****     #ifndef CY_CFG_SECTION
  34:.\Generated_Source\PSoC5/cyfitter_cfg.c ****         #define CY_CFG_SECTION __attribute__ ((section(".psocinit")))
  35:.\Generated_Source\PSoC5/cyfitter_cfg.c ****     #endif
  36:.\Generated_Source\PSoC5/cyfitter_cfg.c ****     
  37:.\Generated_Source\PSoC5/cyfitter_cfg.c ****     #if defined(__ARMCC_VERSION)
  38:.\Generated_Source\PSoC5/cyfitter_cfg.c ****         #define CY_CFG_MEMORY_BARRIER() __memory_changed()
  39:.\Generated_Source\PSoC5/cyfitter_cfg.c ****     #else
  40:.\Generated_Source\PSoC5/cyfitter_cfg.c ****         #define CY_CFG_MEMORY_BARRIER() __sync_synchronize()
  41:.\Generated_Source\PSoC5/cyfitter_cfg.c ****     #endif
  42:.\Generated_Source\PSoC5/cyfitter_cfg.c ****     
  43:.\Generated_Source\PSoC5/cyfitter_cfg.c **** #elif defined(__ICCARM__)
  44:.\Generated_Source\PSoC5/cyfitter_cfg.c ****     #include <intrinsics.h>
  45:.\Generated_Source\PSoC5/cyfitter_cfg.c **** 
  46:.\Generated_Source\PSoC5/cyfitter_cfg.c ****     #define CYPACKED __packed
  47:.\Generated_Source\PSoC5/cyfitter_cfg.c ****     #define CYPACKED_ATTR 
  48:.\Generated_Source\PSoC5/cyfitter_cfg.c ****     #define CYALIGNED _Pragma("data_alignment=4")
  49:.\Generated_Source\PSoC5/cyfitter_cfg.c ****     #define CY_CFG_UNUSED _Pragma("diag_suppress=Pe177")
  50:.\Generated_Source\PSoC5/cyfitter_cfg.c ****     #define CY_CFG_SECTION _Pragma("location=\".psocinit\"")
  51:.\Generated_Source\PSoC5/cyfitter_cfg.c ****     
  52:.\Generated_Source\PSoC5/cyfitter_cfg.c ****     #define CY_CFG_MEMORY_BARRIER() __DMB()
  53:.\Generated_Source\PSoC5/cyfitter_cfg.c ****     
  54:.\Generated_Source\PSoC5/cyfitter_cfg.c **** #else
  55:.\Generated_Source\PSoC5/cyfitter_cfg.c ****     #error Unsupported toolchain
  56:.\Generated_Source\PSoC5/cyfitter_cfg.c **** #endif
  57:.\Generated_Source\PSoC5/cyfitter_cfg.c **** 
  58:.\Generated_Source\PSoC5/cyfitter_cfg.c **** 
  59:.\Generated_Source\PSoC5/cyfitter_cfg.c **** CY_CFG_UNUSED
  60:.\Generated_Source\PSoC5/cyfitter_cfg.c **** static void CYMEMZERO(void *s, size_t n);
  61:.\Generated_Source\PSoC5/cyfitter_cfg.c **** CY_CFG_UNUSED
  62:.\Generated_Source\PSoC5/cyfitter_cfg.c **** static void CYMEMZERO(void *s, size_t n)
  63:.\Generated_Source\PSoC5/cyfitter_cfg.c **** {
  64:.\Generated_Source\PSoC5/cyfitter_cfg.c **** 	(void)memset(s, 0, n);
  65:.\Generated_Source\PSoC5/cyfitter_cfg.c **** }
  66:.\Generated_Source\PSoC5/cyfitter_cfg.c **** CY_CFG_UNUSED
  67:.\Generated_Source\PSoC5/cyfitter_cfg.c **** static void CYCONFIGCPY(void *dest, const void *src, size_t n);
  68:.\Generated_Source\PSoC5/cyfitter_cfg.c **** CY_CFG_UNUSED
  69:.\Generated_Source\PSoC5/cyfitter_cfg.c **** static void CYCONFIGCPY(void *dest, const void *src, size_t n)
  70:.\Generated_Source\PSoC5/cyfitter_cfg.c **** {
  71:.\Generated_Source\PSoC5/cyfitter_cfg.c **** 	(void)memcpy(dest, src, n);
  72:.\Generated_Source\PSoC5/cyfitter_cfg.c **** }
  73:.\Generated_Source\PSoC5/cyfitter_cfg.c **** CY_CFG_UNUSED
  74:.\Generated_Source\PSoC5/cyfitter_cfg.c **** static void CYCONFIGCPYCODE(void *dest, const void *src, size_t n);
  75:.\Generated_Source\PSoC5/cyfitter_cfg.c **** CY_CFG_UNUSED
  76:.\Generated_Source\PSoC5/cyfitter_cfg.c **** static void CYCONFIGCPYCODE(void *dest, const void *src, size_t n)
  77:.\Generated_Source\PSoC5/cyfitter_cfg.c **** {
  78:.\Generated_Source\PSoC5/cyfitter_cfg.c **** 	(void)memcpy(dest, src, n);
  79:.\Generated_Source\PSoC5/cyfitter_cfg.c **** }
  80:.\Generated_Source\PSoC5/cyfitter_cfg.c **** 
  81:.\Generated_Source\PSoC5/cyfitter_cfg.c **** 
  82:.\Generated_Source\PSoC5/cyfitter_cfg.c **** 
  83:.\Generated_Source\PSoC5/cyfitter_cfg.c **** /* Clock startup error codes                                                   */
  84:.\Generated_Source\PSoC5/cyfitter_cfg.c **** #define CYCLOCKSTART_NO_ERROR    0u
  85:.\Generated_Source\PSoC5/cyfitter_cfg.c **** #define CYCLOCKSTART_XTAL_ERROR  1u
  86:.\Generated_Source\PSoC5/cyfitter_cfg.c **** #define CYCLOCKSTART_32KHZ_ERROR 2u
  87:.\Generated_Source\PSoC5/cyfitter_cfg.c **** #define CYCLOCKSTART_PLL_ERROR   3u
  88:.\Generated_Source\PSoC5/cyfitter_cfg.c **** 
  89:.\Generated_Source\PSoC5/cyfitter_cfg.c **** #ifdef CY_NEED_CYCLOCKSTARTUPERROR
ARM GAS  C:\Users\dufma\AppData\Local\Temp\ccN4cuig.s 			page 3


  90:.\Generated_Source\PSoC5/cyfitter_cfg.c **** /*******************************************************************************
  91:.\Generated_Source\PSoC5/cyfitter_cfg.c **** * Function Name: CyClockStartupError
  92:.\Generated_Source\PSoC5/cyfitter_cfg.c **** ********************************************************************************
  93:.\Generated_Source\PSoC5/cyfitter_cfg.c **** * Summary:
  94:.\Generated_Source\PSoC5/cyfitter_cfg.c **** *  If an error is encountered during clock configuration (crystal startup error,
  95:.\Generated_Source\PSoC5/cyfitter_cfg.c **** *  PLL lock error, etc.), the system will end up here.  Unless reimplemented by
  96:.\Generated_Source\PSoC5/cyfitter_cfg.c **** *  the customer, this function will stop in an infinite loop.
  97:.\Generated_Source\PSoC5/cyfitter_cfg.c **** *
  98:.\Generated_Source\PSoC5/cyfitter_cfg.c **** * Parameters:
  99:.\Generated_Source\PSoC5/cyfitter_cfg.c **** *   void
 100:.\Generated_Source\PSoC5/cyfitter_cfg.c **** *
 101:.\Generated_Source\PSoC5/cyfitter_cfg.c **** * Return:
 102:.\Generated_Source\PSoC5/cyfitter_cfg.c **** *   void
 103:.\Generated_Source\PSoC5/cyfitter_cfg.c **** *
 104:.\Generated_Source\PSoC5/cyfitter_cfg.c **** *******************************************************************************/
 105:.\Generated_Source\PSoC5/cyfitter_cfg.c **** CY_CFG_UNUSED
 106:.\Generated_Source\PSoC5/cyfitter_cfg.c **** static void CyClockStartupError(uint8 errorCode);
 107:.\Generated_Source\PSoC5/cyfitter_cfg.c **** CY_CFG_UNUSED
 108:.\Generated_Source\PSoC5/cyfitter_cfg.c **** static void CyClockStartupError(uint8 errorCode)
 109:.\Generated_Source\PSoC5/cyfitter_cfg.c **** {
  26              		.loc 1 109 0
  27              		.cfi_startproc
  28              		@ Volatile: function does not return.
  29              		@ args = 0, pretend = 0, frame = 0
  30              		@ frame_needed = 0, uses_anonymous_args = 0
  31              		@ link register save eliminated.
  32              	.LVL0:
  33              	.L2:
 110:.\Generated_Source\PSoC5/cyfitter_cfg.c ****     /* To remove the compiler warning if errorCode not used.                */
 111:.\Generated_Source\PSoC5/cyfitter_cfg.c ****     errorCode = errorCode;
 112:.\Generated_Source\PSoC5/cyfitter_cfg.c **** 
 113:.\Generated_Source\PSoC5/cyfitter_cfg.c ****     /* `#START CyClockStartupError` */
 114:.\Generated_Source\PSoC5/cyfitter_cfg.c **** 
 115:.\Generated_Source\PSoC5/cyfitter_cfg.c ****     /* If we have a clock startup error (bad MHz crystal, PLL lock, etc.),  */
 116:.\Generated_Source\PSoC5/cyfitter_cfg.c ****     /* we will end up here to allow the customer to implement something to  */
 117:.\Generated_Source\PSoC5/cyfitter_cfg.c ****     /* deal with the clock condition.                                       */
 118:.\Generated_Source\PSoC5/cyfitter_cfg.c **** 
 119:.\Generated_Source\PSoC5/cyfitter_cfg.c ****     /* `#END` */
 120:.\Generated_Source\PSoC5/cyfitter_cfg.c **** 
 121:.\Generated_Source\PSoC5/cyfitter_cfg.c ****     /* If nothing else, stop here since the clocks have not started         */
 122:.\Generated_Source\PSoC5/cyfitter_cfg.c ****     /* correctly.                                                           */
 123:.\Generated_Source\PSoC5/cyfitter_cfg.c ****     while(1) {}
  34              		.loc 1 123 0 discriminator 1
  35 0000 FEE7     		b	.L2
  36              		.cfi_endproc
  37              	.LFE3:
  38              		.size	CyClockStartupError, .-CyClockStartupError
  39 0002 00BF     		.section	.text.cfg_write_bytes32,"ax",%progbits
  40              		.align	2
  41              		.thumb
  42              		.thumb_func
  43              		.type	cfg_write_bytes32, %function
  44              	cfg_write_bytes32:
  45              	.LFB4:
 124:.\Generated_Source\PSoC5/cyfitter_cfg.c **** }
 125:.\Generated_Source\PSoC5/cyfitter_cfg.c **** #endif
 126:.\Generated_Source\PSoC5/cyfitter_cfg.c **** 
ARM GAS  C:\Users\dufma\AppData\Local\Temp\ccN4cuig.s 			page 4


 127:.\Generated_Source\PSoC5/cyfitter_cfg.c **** #define CY_CFG_BASE_ADDR_COUNT 33u
 128:.\Generated_Source\PSoC5/cyfitter_cfg.c **** CYPACKED typedef struct
 129:.\Generated_Source\PSoC5/cyfitter_cfg.c **** {
 130:.\Generated_Source\PSoC5/cyfitter_cfg.c **** 	uint8 offset;
 131:.\Generated_Source\PSoC5/cyfitter_cfg.c **** 	uint8 value;
 132:.\Generated_Source\PSoC5/cyfitter_cfg.c **** } CYPACKED_ATTR cy_cfg_addrvalue_t;
 133:.\Generated_Source\PSoC5/cyfitter_cfg.c **** 
 134:.\Generated_Source\PSoC5/cyfitter_cfg.c **** #define cy_cfg_addr_table ((const uint32 CYFAR *)0x48000000u)
 135:.\Generated_Source\PSoC5/cyfitter_cfg.c **** #define cy_cfg_data_table ((const cy_cfg_addrvalue_t CYFAR *)0x48000084u)
 136:.\Generated_Source\PSoC5/cyfitter_cfg.c **** 
 137:.\Generated_Source\PSoC5/cyfitter_cfg.c **** /* IOPORT_7 Address: CYDEV_PRTDSI_PRT12_BASE Size (bytes): 6 */
 138:.\Generated_Source\PSoC5/cyfitter_cfg.c **** #define BS_IOPORT_7_VAL ((const uint8 CYFAR *)0x48000738u)
 139:.\Generated_Source\PSoC5/cyfitter_cfg.c **** 
 140:.\Generated_Source\PSoC5/cyfitter_cfg.c **** /* IOPINS0_0 Address: CYREG_PRT0_DM0 Size (bytes): 8 */
 141:.\Generated_Source\PSoC5/cyfitter_cfg.c **** #define BS_IOPINS0_0_VAL ((const uint8 CYFAR *)0x48000740u)
 142:.\Generated_Source\PSoC5/cyfitter_cfg.c **** 
 143:.\Generated_Source\PSoC5/cyfitter_cfg.c **** /* IOPINS0_7 Address: CYREG_PRT12_DR Size (bytes): 10 */
 144:.\Generated_Source\PSoC5/cyfitter_cfg.c **** #define BS_IOPINS0_7_VAL ((const uint8 CYFAR *)0x48000748u)
 145:.\Generated_Source\PSoC5/cyfitter_cfg.c **** 
 146:.\Generated_Source\PSoC5/cyfitter_cfg.c **** /* IOPINS0_8 Address: CYREG_PRT15_DM0 Size (bytes): 8 */
 147:.\Generated_Source\PSoC5/cyfitter_cfg.c **** #define BS_IOPINS0_8_VAL ((const uint8 CYFAR *)0x48000754u)
 148:.\Generated_Source\PSoC5/cyfitter_cfg.c **** 
 149:.\Generated_Source\PSoC5/cyfitter_cfg.c **** /* IOPINS0_1 Address: CYREG_PRT1_DM0 Size (bytes): 8 */
 150:.\Generated_Source\PSoC5/cyfitter_cfg.c **** #define BS_IOPINS0_1_VAL ((const uint8 CYFAR *)0x4800075Cu)
 151:.\Generated_Source\PSoC5/cyfitter_cfg.c **** 
 152:.\Generated_Source\PSoC5/cyfitter_cfg.c **** /* IOPINS0_2 Address: CYREG_PRT2_DM0 Size (bytes): 8 */
 153:.\Generated_Source\PSoC5/cyfitter_cfg.c **** #define BS_IOPINS0_2_VAL ((const uint8 CYFAR *)0x48000764u)
 154:.\Generated_Source\PSoC5/cyfitter_cfg.c **** 
 155:.\Generated_Source\PSoC5/cyfitter_cfg.c **** /* IOPINS0_3 Address: CYREG_PRT3_DM0 Size (bytes): 8 */
 156:.\Generated_Source\PSoC5/cyfitter_cfg.c **** #define BS_IOPINS0_3_VAL ((const uint8 CYFAR *)0x4800076Cu)
 157:.\Generated_Source\PSoC5/cyfitter_cfg.c **** 
 158:.\Generated_Source\PSoC5/cyfitter_cfg.c **** 
 159:.\Generated_Source\PSoC5/cyfitter_cfg.c **** /*******************************************************************************
 160:.\Generated_Source\PSoC5/cyfitter_cfg.c **** * Function Name: cfg_write_bytes32
 161:.\Generated_Source\PSoC5/cyfitter_cfg.c **** ********************************************************************************
 162:.\Generated_Source\PSoC5/cyfitter_cfg.c **** * Summary:
 163:.\Generated_Source\PSoC5/cyfitter_cfg.c **** *  This function is used for setting up the chip configuration areas that
 164:.\Generated_Source\PSoC5/cyfitter_cfg.c **** *  contain relatively sparse data.
 165:.\Generated_Source\PSoC5/cyfitter_cfg.c **** *
 166:.\Generated_Source\PSoC5/cyfitter_cfg.c **** * Parameters:
 167:.\Generated_Source\PSoC5/cyfitter_cfg.c **** *   void
 168:.\Generated_Source\PSoC5/cyfitter_cfg.c **** *
 169:.\Generated_Source\PSoC5/cyfitter_cfg.c **** * Return:
 170:.\Generated_Source\PSoC5/cyfitter_cfg.c **** *   void
 171:.\Generated_Source\PSoC5/cyfitter_cfg.c **** *
 172:.\Generated_Source\PSoC5/cyfitter_cfg.c **** *******************************************************************************/
 173:.\Generated_Source\PSoC5/cyfitter_cfg.c **** static void cfg_write_bytes32(const uint32 addr_table[], const cy_cfg_addrvalue_t data_table[]);
 174:.\Generated_Source\PSoC5/cyfitter_cfg.c **** static void cfg_write_bytes32(const uint32 addr_table[], const cy_cfg_addrvalue_t data_table[])
 175:.\Generated_Source\PSoC5/cyfitter_cfg.c **** {
  46              		.loc 1 175 0
  47              		.cfi_startproc
  48              		@ args = 0, pretend = 0, frame = 0
  49              		@ frame_needed = 0, uses_anonymous_args = 0
  50              		@ link register save eliminated.
  51              	.LVL1:
  52 0000 F0B4     		push	{r4, r5, r6, r7}
  53              		.cfi_def_cfa_offset 16
ARM GAS  C:\Users\dufma\AppData\Local\Temp\ccN4cuig.s 			page 5


  54              		.cfi_offset 4, -16
  55              		.cfi_offset 5, -12
  56              		.cfi_offset 6, -8
  57              		.cfi_offset 7, -4
  58              	.LVL2:
 176:.\Generated_Source\PSoC5/cyfitter_cfg.c **** 	/* For 32-bit little-endian architectures */
 177:.\Generated_Source\PSoC5/cyfitter_cfg.c **** 	uint32 i, j = 0u;
  59              		.loc 1 177 0
  60 0002 0022     		movs	r2, #0
 178:.\Generated_Source\PSoC5/cyfitter_cfg.c **** 	for (i = 0u; i < CY_CFG_BASE_ADDR_COUNT; i++)
  61              		.loc 1 178 0
  62 0004 1746     		mov	r7, r2
  63 0006 11E0     		b	.L4
  64              	.LVL3:
  65              	.L7:
  66              	.LBB2:
 179:.\Generated_Source\PSoC5/cyfitter_cfg.c **** 	{
 180:.\Generated_Source\PSoC5/cyfitter_cfg.c **** 		uint32 baseAddr = addr_table[i];
  67              		.loc 1 180 0
  68 0008 50F82760 		ldr	r6, [r0, r7, lsl #2]
  69              	.LVL4:
 181:.\Generated_Source\PSoC5/cyfitter_cfg.c **** 		uint8 count = (uint8)baseAddr;
  70              		.loc 1 181 0
  71 000c F3B2     		uxtb	r3, r6
  72              	.LVL5:
 182:.\Generated_Source\PSoC5/cyfitter_cfg.c **** 		baseAddr &= 0xFFFFFF00u;
  73              		.loc 1 182 0
  74 000e 26F0FF06 		bic	r6, r6, #255
  75              	.LVL6:
 183:.\Generated_Source\PSoC5/cyfitter_cfg.c **** 		while (count != 0u)
  76              		.loc 1 183 0
  77 0012 08E0     		b	.L5
  78              	.L6:
 184:.\Generated_Source\PSoC5/cyfitter_cfg.c **** 		{
 185:.\Generated_Source\PSoC5/cyfitter_cfg.c **** 			CY_SET_XTND_REG8((void CYFAR *)(baseAddr + data_table[j].offset), data_table[j].value);
  79              		.loc 1 185 0
  80 0014 01EB4205 		add	r5, r1, r2, lsl #1
  81 0018 11F81240 		ldrb	r4, [r1, r2, lsl #1]	@ zero_extendqisi2
  82 001c 6D78     		ldrb	r5, [r5, #1]	@ zero_extendqisi2
  83 001e A555     		strb	r5, [r4, r6]
 186:.\Generated_Source\PSoC5/cyfitter_cfg.c **** 			j++;
  84              		.loc 1 186 0
  85 0020 0132     		adds	r2, r2, #1
  86              	.LVL7:
 187:.\Generated_Source\PSoC5/cyfitter_cfg.c **** 			count--;
  87              		.loc 1 187 0
  88 0022 013B     		subs	r3, r3, #1
  89              	.LVL8:
  90 0024 DBB2     		uxtb	r3, r3
  91              	.LVL9:
  92              	.L5:
 183:.\Generated_Source\PSoC5/cyfitter_cfg.c **** 		{
  93              		.loc 1 183 0
  94 0026 002B     		cmp	r3, #0
  95 0028 F4D1     		bne	.L6
  96              	.LBE2:
 178:.\Generated_Source\PSoC5/cyfitter_cfg.c **** 	{
ARM GAS  C:\Users\dufma\AppData\Local\Temp\ccN4cuig.s 			page 6


  97              		.loc 1 178 0 discriminator 2
  98 002a 0137     		adds	r7, r7, #1
  99              	.LVL10:
 100              	.L4:
 178:.\Generated_Source\PSoC5/cyfitter_cfg.c **** 	{
 101              		.loc 1 178 0 is_stmt 0 discriminator 1
 102 002c 202F     		cmp	r7, #32
 103 002e EBD9     		bls	.L7
 188:.\Generated_Source\PSoC5/cyfitter_cfg.c **** 		}
 189:.\Generated_Source\PSoC5/cyfitter_cfg.c **** 	}
 190:.\Generated_Source\PSoC5/cyfitter_cfg.c **** }
 104              		.loc 1 190 0 is_stmt 1
 105 0030 F0BC     		pop	{r4, r5, r6, r7}
 106              		.cfi_restore 7
 107              		.cfi_restore 6
 108              		.cfi_restore 5
 109              		.cfi_restore 4
 110              		.cfi_def_cfa_offset 0
 111              	.LVL11:
 112 0032 7047     		bx	lr
 113              		.cfi_endproc
 114              	.LFE4:
 115              		.size	cfg_write_bytes32, .-cfg_write_bytes32
 116              		.section	.text.CYMEMZERO,"ax",%progbits
 117              		.align	2
 118              		.thumb
 119              		.thumb_func
 120              		.type	CYMEMZERO, %function
 121              	CYMEMZERO:
 122              	.LFB0:
  63:.\Generated_Source\PSoC5/cyfitter_cfg.c **** 	(void)memset(s, 0, n);
 123              		.loc 1 63 0
 124              		.cfi_startproc
 125              		@ args = 0, pretend = 0, frame = 0
 126              		@ frame_needed = 0, uses_anonymous_args = 0
 127              	.LVL12:
 128 0000 08B5     		push	{r3, lr}
 129              		.cfi_def_cfa_offset 8
 130              		.cfi_offset 3, -8
 131              		.cfi_offset 14, -4
 132 0002 0A46     		mov	r2, r1
  64:.\Generated_Source\PSoC5/cyfitter_cfg.c **** }
 133              		.loc 1 64 0
 134 0004 0021     		movs	r1, #0
 135              	.LVL13:
 136 0006 FFF7FEFF 		bl	memset
 137              	.LVL14:
 138 000a 08BD     		pop	{r3, pc}
 139              		.cfi_endproc
 140              	.LFE0:
 141              		.size	CYMEMZERO, .-CYMEMZERO
 142              		.section	.text.ClockSetup,"ax",%progbits
 143              		.align	2
 144              		.thumb
 145              		.thumb_func
 146              		.type	ClockSetup, %function
 147              	ClockSetup:
ARM GAS  C:\Users\dufma\AppData\Local\Temp\ccN4cuig.s 			page 7


 148              	.LFB5:
 191:.\Generated_Source\PSoC5/cyfitter_cfg.c **** 
 192:.\Generated_Source\PSoC5/cyfitter_cfg.c **** /*******************************************************************************
 193:.\Generated_Source\PSoC5/cyfitter_cfg.c **** * Function Name: ClockSetup
 194:.\Generated_Source\PSoC5/cyfitter_cfg.c **** ********************************************************************************
 195:.\Generated_Source\PSoC5/cyfitter_cfg.c **** *
 196:.\Generated_Source\PSoC5/cyfitter_cfg.c **** * Summary:
 197:.\Generated_Source\PSoC5/cyfitter_cfg.c **** *  Performs the initialization of all of the clocks in the device based on the
 198:.\Generated_Source\PSoC5/cyfitter_cfg.c **** *  settings in the Clock tab of the DWR.  This includes enabling the requested
 199:.\Generated_Source\PSoC5/cyfitter_cfg.c **** *  clocks and setting the necessary dividers to produce the desired frequency. 
 200:.\Generated_Source\PSoC5/cyfitter_cfg.c **** *
 201:.\Generated_Source\PSoC5/cyfitter_cfg.c **** * Parameters:
 202:.\Generated_Source\PSoC5/cyfitter_cfg.c **** *  void
 203:.\Generated_Source\PSoC5/cyfitter_cfg.c **** *
 204:.\Generated_Source\PSoC5/cyfitter_cfg.c **** * Return:
 205:.\Generated_Source\PSoC5/cyfitter_cfg.c **** *  void
 206:.\Generated_Source\PSoC5/cyfitter_cfg.c **** *
 207:.\Generated_Source\PSoC5/cyfitter_cfg.c **** *******************************************************************************/
 208:.\Generated_Source\PSoC5/cyfitter_cfg.c **** static void ClockSetup(void);
 209:.\Generated_Source\PSoC5/cyfitter_cfg.c **** static void ClockSetup(void)
 210:.\Generated_Source\PSoC5/cyfitter_cfg.c **** {
 149              		.loc 1 210 0
 150              		.cfi_startproc
 151              		@ args = 0, pretend = 0, frame = 0
 152              		@ frame_needed = 0, uses_anonymous_args = 0
 153 0000 38B5     		push	{r3, r4, r5, lr}
 154              		.cfi_def_cfa_offset 16
 155              		.cfi_offset 3, -16
 156              		.cfi_offset 4, -12
 157              		.cfi_offset 5, -8
 158              		.cfi_offset 14, -4
 211:.\Generated_Source\PSoC5/cyfitter_cfg.c **** 	uint32 timeout;
 212:.\Generated_Source\PSoC5/cyfitter_cfg.c **** 	uint8 pllLock;
 213:.\Generated_Source\PSoC5/cyfitter_cfg.c **** 
 214:.\Generated_Source\PSoC5/cyfitter_cfg.c **** 
 215:.\Generated_Source\PSoC5/cyfitter_cfg.c **** 	/* Configure Digital Clocks based on settings from Clock DWR */
 216:.\Generated_Source\PSoC5/cyfitter_cfg.c **** 	CY_SET_XTND_REG16((void CYFAR *)(CYREG_CLKDIST_DCFG0_CFG0), 0x0001u);
 159              		.loc 1 216 0
 160 0002 0122     		movs	r2, #1
 161 0004 2B4B     		ldr	r3, .L17
 162 0006 1A80     		strh	r2, [r3]	@ movhi
 217:.\Generated_Source\PSoC5/cyfitter_cfg.c **** 	CY_SET_XTND_REG8((void CYFAR *)(CYREG_CLKDIST_DCFG0_CFG0 + 0x2u), 0x18u);
 163              		.loc 1 217 0
 164 0008 1823     		movs	r3, #24
 165 000a 2B4A     		ldr	r2, .L17+4
 166 000c 1370     		strb	r3, [r2]
 218:.\Generated_Source\PSoC5/cyfitter_cfg.c **** 	CY_SET_XTND_REG16((void CYFAR *)(CYREG_CLKDIST_DCFG1_CFG0), 0x001Du);
 167              		.loc 1 218 0
 168 000e 1D21     		movs	r1, #29
 169 0010 0232     		adds	r2, r2, #2
 170 0012 1180     		strh	r1, [r2]	@ movhi
 219:.\Generated_Source\PSoC5/cyfitter_cfg.c **** 	CY_SET_XTND_REG8((void CYFAR *)(CYREG_CLKDIST_DCFG1_CFG0 + 0x2u), 0x18u);
 171              		.loc 1 219 0
 172 0014 0232     		adds	r2, r2, #2
 173 0016 1370     		strb	r3, [r2]
 220:.\Generated_Source\PSoC5/cyfitter_cfg.c **** 	CY_SET_XTND_REG16((void CYFAR *)(CYREG_CLKDIST_DCFG2_CFG0), 0x004Du);
 174              		.loc 1 220 0
ARM GAS  C:\Users\dufma\AppData\Local\Temp\ccN4cuig.s 			page 8


 175 0018 4D21     		movs	r1, #77
 176 001a 0232     		adds	r2, r2, #2
 177 001c 1180     		strh	r1, [r2]	@ movhi
 221:.\Generated_Source\PSoC5/cyfitter_cfg.c **** 	CY_SET_XTND_REG8((void CYFAR *)(CYREG_CLKDIST_DCFG2_CFG0 + 0x2u), 0x18u);
 178              		.loc 1 221 0
 179 001e 0232     		adds	r2, r2, #2
 180 0020 1370     		strb	r3, [r2]
 222:.\Generated_Source\PSoC5/cyfitter_cfg.c **** 	CY_SET_XTND_REG16((void CYFAR *)(CYREG_CLKDIST_DCFG3_CFG0), 0x00EFu);
 181              		.loc 1 222 0
 182 0022 EF21     		movs	r1, #239
 183 0024 0232     		adds	r2, r2, #2
 184 0026 1180     		strh	r1, [r2]	@ movhi
 223:.\Generated_Source\PSoC5/cyfitter_cfg.c **** 	CY_SET_XTND_REG8((void CYFAR *)(CYREG_CLKDIST_DCFG3_CFG0 + 0x2u), 0x18u);
 185              		.loc 1 223 0
 186 0028 0232     		adds	r2, r2, #2
 187 002a 1370     		strb	r3, [r2]
 224:.\Generated_Source\PSoC5/cyfitter_cfg.c **** 
 225:.\Generated_Source\PSoC5/cyfitter_cfg.c **** 	/* Configure ILO based on settings from Clock DWR */
 226:.\Generated_Source\PSoC5/cyfitter_cfg.c **** 	CY_SET_XTND_REG8((void CYFAR *)(CYREG_SLOWCLK_ILO_CR0), 0x02u);
 188              		.loc 1 226 0
 189 002c 0222     		movs	r2, #2
 190 002e 234B     		ldr	r3, .L17+8
 191 0030 1A70     		strb	r2, [r3]
 227:.\Generated_Source\PSoC5/cyfitter_cfg.c **** 	CY_SET_XTND_REG8((void CYFAR *)(CYREG_CLKDIST_CR), 0x08u);
 192              		.loc 1 227 0
 193 0032 0822     		movs	r2, #8
 194 0034 4FF04023 		mov	r3, #1073758208
 195 0038 1A70     		strb	r2, [r3]
 228:.\Generated_Source\PSoC5/cyfitter_cfg.c **** 
 229:.\Generated_Source\PSoC5/cyfitter_cfg.c **** 	/* Configure IMO based on settings from Clock DWR */
 230:.\Generated_Source\PSoC5/cyfitter_cfg.c **** 	CY_SET_XTND_REG8((void CYFAR *)(CYREG_FASTCLK_IMO_CR), 0x03u);
 196              		.loc 1 230 0
 197 003a 0321     		movs	r1, #3
 198 003c 03F50073 		add	r3, r3, #512
 199 0040 1970     		strb	r1, [r3]
 231:.\Generated_Source\PSoC5/cyfitter_cfg.c **** 	CY_SET_XTND_REG8((void CYFAR *)(CYREG_IMO_TR1), (CY_GET_XTND_REG8((void CYFAR *)CYREG_FLSHID_CUST_
 200              		.loc 1 231 0
 201 0042 1F4B     		ldr	r3, .L17+12
 202 0044 1B78     		ldrb	r3, [r3]	@ zero_extendqisi2
 203 0046 DBB2     		uxtb	r3, r3
 204 0048 1E49     		ldr	r1, .L17+16
 205 004a 0B70     		strb	r3, [r1]
 232:.\Generated_Source\PSoC5/cyfitter_cfg.c **** 
 233:.\Generated_Source\PSoC5/cyfitter_cfg.c **** 	/* Configure PLL based on settings from Clock DWR */
 234:.\Generated_Source\PSoC5/cyfitter_cfg.c **** 	CY_SET_XTND_REG16((void CYFAR *)(CYREG_FASTCLK_PLL_P), 0x0008u);
 206              		.loc 1 234 0
 207 004c 1E4B     		ldr	r3, .L17+20
 208 004e 1A80     		strh	r2, [r3]	@ movhi
 235:.\Generated_Source\PSoC5/cyfitter_cfg.c **** 	CY_SET_XTND_REG16((void CYFAR *)(CYREG_FASTCLK_PLL_CFG0), 0x1251u);
 209              		.loc 1 235 0
 210 0050 41F25122 		movw	r2, #4689
 211 0054 023B     		subs	r3, r3, #2
 212 0056 1A80     		strh	r2, [r3]	@ movhi
 213              	.LVL15:
 236:.\Generated_Source\PSoC5/cyfitter_cfg.c **** 	/* Wait up to 250us for the PLL to lock */
 237:.\Generated_Source\PSoC5/cyfitter_cfg.c **** 	pllLock = 0u;
 214              		.loc 1 237 0
ARM GAS  C:\Users\dufma\AppData\Local\Temp\ccN4cuig.s 			page 9


 215 0058 0024     		movs	r4, #0
 238:.\Generated_Source\PSoC5/cyfitter_cfg.c **** 	for (timeout = 250u / 10u; (timeout > 0u) && (pllLock != 0x03u); timeout--)
 216              		.loc 1 238 0
 217 005a 1925     		movs	r5, #25
 218 005c 0CE0     		b	.L12
 219              	.LVL16:
 220              	.L14:
 239:.\Generated_Source\PSoC5/cyfitter_cfg.c **** 	{ 
 240:.\Generated_Source\PSoC5/cyfitter_cfg.c **** 		pllLock = 0x03u & ((uint8)((uint8)pllLock << 1) | ((CY_GET_XTND_REG8((void CYFAR *)CYREG_FASTCLK_
 221              		.loc 1 240 0 discriminator 4
 222 005e 1B4B     		ldr	r3, .L17+24
 223 0060 1B78     		ldrb	r3, [r3]	@ zero_extendqisi2
 224 0062 03F00103 		and	r3, r3, #1
 225 0066 43EA4404 		orr	r4, r3, r4, lsl #1
 226              	.LVL17:
 227 006a 04F00304 		and	r4, r4, #3
 228              	.LVL18:
 241:.\Generated_Source\PSoC5/cyfitter_cfg.c **** 		CyDelayCycles(10u * 48u); /* Delay 10us based on 48MHz clock */
 229              		.loc 1 241 0 discriminator 4
 230 006e 4FF4F070 		mov	r0, #480
 231 0072 FFF7FEFF 		bl	CyDelayCycles
 232              	.LVL19:
 238:.\Generated_Source\PSoC5/cyfitter_cfg.c **** 	for (timeout = 250u / 10u; (timeout > 0u) && (pllLock != 0x03u); timeout--)
 233              		.loc 1 238 0 discriminator 4
 234 0076 013D     		subs	r5, r5, #1
 235              	.LVL20:
 236              	.L12:
 238:.\Generated_Source\PSoC5/cyfitter_cfg.c **** 	for (timeout = 250u / 10u; (timeout > 0u) && (pllLock != 0x03u); timeout--)
 237              		.loc 1 238 0 is_stmt 0 discriminator 1
 238 0078 0DB1     		cbz	r5, .L13
 238:.\Generated_Source\PSoC5/cyfitter_cfg.c **** 	for (timeout = 250u / 10u; (timeout > 0u) && (pllLock != 0x03u); timeout--)
 239              		.loc 1 238 0 discriminator 3
 240 007a 032C     		cmp	r4, #3
 241 007c EFD1     		bne	.L14
 242              	.L13:
 242:.\Generated_Source\PSoC5/cyfitter_cfg.c **** 	}
 243:.\Generated_Source\PSoC5/cyfitter_cfg.c **** 	/* If we ran out of time the PLL didn't lock so go to the error function */
 244:.\Generated_Source\PSoC5/cyfitter_cfg.c **** 	if (timeout == 0u)
 243              		.loc 1 244 0 is_stmt 1
 244 007e 15B9     		cbnz	r5, .L15
 245:.\Generated_Source\PSoC5/cyfitter_cfg.c **** 	{
 246:.\Generated_Source\PSoC5/cyfitter_cfg.c **** 		CyClockStartupError(CYCLOCKSTART_PLL_ERROR);
 245              		.loc 1 246 0
 246 0080 0320     		movs	r0, #3
 247 0082 FFF7FEFF 		bl	CyClockStartupError
 248              	.LVL21:
 249              	.L15:
 247:.\Generated_Source\PSoC5/cyfitter_cfg.c **** 	}
 248:.\Generated_Source\PSoC5/cyfitter_cfg.c **** 
 249:.\Generated_Source\PSoC5/cyfitter_cfg.c **** 	/* Configure Bus/Master Clock based on settings from Clock DWR */
 250:.\Generated_Source\PSoC5/cyfitter_cfg.c **** 	CY_SET_XTND_REG16((void CYFAR *)(CYREG_CLKDIST_MSTR0), 0x0100u);
 250              		.loc 1 250 0
 251 0086 124B     		ldr	r3, .L17+28
 252 0088 4FF48072 		mov	r2, #256
 253 008c 1A80     		strh	r2, [r3]	@ movhi
 251:.\Generated_Source\PSoC5/cyfitter_cfg.c **** 	CY_SET_XTND_REG8((void CYFAR *)(CYREG_CLKDIST_MSTR0), 0x07u);
 254              		.loc 1 251 0
ARM GAS  C:\Users\dufma\AppData\Local\Temp\ccN4cuig.s 			page 10


 255 008e 0722     		movs	r2, #7
 256 0090 1A70     		strb	r2, [r3]
 252:.\Generated_Source\PSoC5/cyfitter_cfg.c **** 	CY_SET_XTND_REG8((void CYFAR *)(CYREG_CLKDIST_BCFG0), 0x00u);
 257              		.loc 1 252 0
 258 0092 0022     		movs	r2, #0
 259 0094 0F49     		ldr	r1, .L17+32
 260 0096 0A70     		strb	r2, [r1]
 253:.\Generated_Source\PSoC5/cyfitter_cfg.c **** 	CY_SET_XTND_REG8((void CYFAR *)(CYREG_CLKDIST_BCFG2), 0x48u);
 261              		.loc 1 253 0
 262 0098 4820     		movs	r0, #72
 263 009a 0231     		adds	r1, r1, #2
 264 009c 0870     		strb	r0, [r1]
 254:.\Generated_Source\PSoC5/cyfitter_cfg.c **** 	CY_SET_XTND_REG8((void CYFAR *)(CYREG_CLKDIST_MSTR0), 0x00u);
 265              		.loc 1 254 0
 266 009e 1A70     		strb	r2, [r3]
 255:.\Generated_Source\PSoC5/cyfitter_cfg.c **** 	CY_SET_XTND_REG8((void CYFAR *)(CYREG_CLKDIST_LD), 0x02u);
 267              		.loc 1 255 0
 268 00a0 0222     		movs	r2, #2
 269 00a2 033B     		subs	r3, r3, #3
 270 00a4 1A70     		strb	r2, [r3]
 256:.\Generated_Source\PSoC5/cyfitter_cfg.c **** 
 257:.\Generated_Source\PSoC5/cyfitter_cfg.c **** 	CY_SET_XTND_REG8((void CYFAR *)(CYREG_PM_ACT_CFG2), ((CY_GET_XTND_REG8((void CYFAR *)CYREG_PM_ACT_
 271              		.loc 1 257 0
 272 00a6 0C4A     		ldr	r2, .L17+36
 273 00a8 1378     		ldrb	r3, [r2]	@ zero_extendqisi2
 274 00aa 43F00F03 		orr	r3, r3, #15
 275 00ae 1370     		strb	r3, [r2]
 276 00b0 38BD     		pop	{r3, r4, r5, pc}
 277              	.LVL22:
 278              	.L18:
 279 00b2 00BF     		.align	2
 280              	.L17:
 281 00b4 80400040 		.word	1073758336
 282 00b8 82400040 		.word	1073758338
 283 00bc 00430040 		.word	1073758976
 284 00c0 08010049 		.word	1224737032
 285 00c4 A1460040 		.word	1073759905
 286 00c8 22420040 		.word	1073758754
 287 00cc 25420040 		.word	1073758757
 288 00d0 04400040 		.word	1073758212
 289 00d4 06400040 		.word	1073758214
 290 00d8 A2430040 		.word	1073759138
 291              		.cfi_endproc
 292              	.LFE5:
 293              		.size	ClockSetup, .-ClockSetup
 294              		.section	.text.AnalogSetDefault,"ax",%progbits
 295              		.align	2
 296              		.thumb
 297              		.thumb_func
 298              		.type	AnalogSetDefault, %function
 299              	AnalogSetDefault:
 300              	.LFB6:
 258:.\Generated_Source\PSoC5/cyfitter_cfg.c **** }
 259:.\Generated_Source\PSoC5/cyfitter_cfg.c **** 
 260:.\Generated_Source\PSoC5/cyfitter_cfg.c **** 
 261:.\Generated_Source\PSoC5/cyfitter_cfg.c **** /* Analog API Functions */
 262:.\Generated_Source\PSoC5/cyfitter_cfg.c **** 
ARM GAS  C:\Users\dufma\AppData\Local\Temp\ccN4cuig.s 			page 11


 263:.\Generated_Source\PSoC5/cyfitter_cfg.c **** 
 264:.\Generated_Source\PSoC5/cyfitter_cfg.c **** /*******************************************************************************
 265:.\Generated_Source\PSoC5/cyfitter_cfg.c **** * Function Name: AnalogSetDefault
 266:.\Generated_Source\PSoC5/cyfitter_cfg.c **** ********************************************************************************
 267:.\Generated_Source\PSoC5/cyfitter_cfg.c **** *
 268:.\Generated_Source\PSoC5/cyfitter_cfg.c **** * Summary:
 269:.\Generated_Source\PSoC5/cyfitter_cfg.c **** *  Sets up the analog portions of the chip to default values based on chip
 270:.\Generated_Source\PSoC5/cyfitter_cfg.c **** *  configuration options from the project.
 271:.\Generated_Source\PSoC5/cyfitter_cfg.c **** *
 272:.\Generated_Source\PSoC5/cyfitter_cfg.c **** * Parameters:
 273:.\Generated_Source\PSoC5/cyfitter_cfg.c **** *  void
 274:.\Generated_Source\PSoC5/cyfitter_cfg.c **** *
 275:.\Generated_Source\PSoC5/cyfitter_cfg.c **** * Return:
 276:.\Generated_Source\PSoC5/cyfitter_cfg.c **** *  void
 277:.\Generated_Source\PSoC5/cyfitter_cfg.c **** *
 278:.\Generated_Source\PSoC5/cyfitter_cfg.c **** *******************************************************************************/
 279:.\Generated_Source\PSoC5/cyfitter_cfg.c **** static void AnalogSetDefault(void);
 280:.\Generated_Source\PSoC5/cyfitter_cfg.c **** static void AnalogSetDefault(void)
 281:.\Generated_Source\PSoC5/cyfitter_cfg.c **** {
 301              		.loc 1 281 0
 302              		.cfi_startproc
 303              		@ args = 0, pretend = 0, frame = 0
 304              		@ frame_needed = 0, uses_anonymous_args = 0
 305 0000 F8B5     		push	{r3, r4, r5, r6, r7, lr}
 306              		.cfi_def_cfa_offset 24
 307              		.cfi_offset 3, -24
 308              		.cfi_offset 4, -20
 309              		.cfi_offset 5, -16
 310              		.cfi_offset 6, -12
 311              		.cfi_offset 7, -8
 312              		.cfi_offset 14, -4
 282:.\Generated_Source\PSoC5/cyfitter_cfg.c **** 	uint8 bg_xover_inl_trim = CY_GET_XTND_REG8((void CYFAR *)(CYREG_FLSHID_MFG_CFG_BG_XOVER_INL_TRIM +
 313              		.loc 1 282 0
 314 0002 174B     		ldr	r3, .L21
 315 0004 1B78     		ldrb	r3, [r3]	@ zero_extendqisi2
 316 0006 DBB2     		uxtb	r3, r3
 317              	.LVL23:
 283:.\Generated_Source\PSoC5/cyfitter_cfg.c **** 	uint8 cr4 = CY_GET_XTND_REG8((void CYFAR *)(CYREG_RESET_CR4));
 318              		.loc 1 283 0
 319 0008 164E     		ldr	r6, .L21+4
 320 000a 3478     		ldrb	r4, [r6]	@ zero_extendqisi2
 321 000c E4B2     		uxtb	r4, r4
 322              	.LVL24:
 284:.\Generated_Source\PSoC5/cyfitter_cfg.c **** 	uint8 cr5 = CY_GET_XTND_REG8((void CYFAR *)(CYREG_RESET_CR5));
 323              		.loc 1 284 0
 324 000e 164F     		ldr	r7, .L21+8
 325 0010 3D78     		ldrb	r5, [r7]	@ zero_extendqisi2
 326 0012 EDB2     		uxtb	r5, r5
 327              	.LVL25:
 285:.\Generated_Source\PSoC5/cyfitter_cfg.c **** 	CY_SET_XTND_REG8((void CYFAR *)(CYREG_BG_DFT0), (bg_xover_inl_trim & 0x07u));
 328              		.loc 1 285 0
 329 0014 03F00701 		and	r1, r3, #7
 330 0018 144A     		ldr	r2, .L21+12
 331 001a 1170     		strb	r1, [r2]
 286:.\Generated_Source\PSoC5/cyfitter_cfg.c **** 	CY_SET_XTND_REG8((void CYFAR *)(CYREG_BG_DFT1), ((bg_xover_inl_trim >> 4) & 0x0Fu));
 332              		.loc 1 286 0
 333 001c 1B09     		lsrs	r3, r3, #4
ARM GAS  C:\Users\dufma\AppData\Local\Temp\ccN4cuig.s 			page 12


 334              	.LVL26:
 335 001e 0132     		adds	r2, r2, #1
 336 0020 1370     		strb	r3, [r2]
 287:.\Generated_Source\PSoC5/cyfitter_cfg.c **** 	/* Disable PRES while setting up SAR voltage reference */
 288:.\Generated_Source\PSoC5/cyfitter_cfg.c **** 	CY_SET_XTND_REG8((void CYFAR *)(CYREG_RESET_CR4), (cr4 | 0x03u));
 337              		.loc 1 288 0
 338 0022 44F00303 		orr	r3, r4, #3
 339 0026 3370     		strb	r3, [r6]
 289:.\Generated_Source\PSoC5/cyfitter_cfg.c **** 	CY_SET_XTND_REG8((void CYFAR *)(CYREG_RESET_CR5), (cr5 | 0x03u));
 340              		.loc 1 289 0
 341 0028 45F00303 		orr	r3, r5, #3
 342 002c 3B70     		strb	r3, [r7]
 290:.\Generated_Source\PSoC5/cyfitter_cfg.c **** 	CY_SET_XTND_REG8((void CYFAR *)CYREG_PRT2_AG, 0x80u);
 343              		.loc 1 290 0
 344 002e 8023     		movs	r3, #128
 345 0030 A2F24272 		subw	r2, r2, #1858
 346 0034 1370     		strb	r3, [r2]
 291:.\Generated_Source\PSoC5/cyfitter_cfg.c **** 	CY_SET_XTND_REG8((void CYFAR *)CYREG_SAR1_CSR1, 0x80u);
 347              		.loc 1 291 0
 348 0036 02F2DC72 		addw	r2, r2, #2012
 349 003a 1370     		strb	r3, [r2]
 292:.\Generated_Source\PSoC5/cyfitter_cfg.c **** 	CY_SET_XTND_REG8((void CYFAR *)CYREG_SAR1_SW0, 0x08u);
 350              		.loc 1 292 0
 351 003c 0823     		movs	r3, #8
 352 003e 02F21F22 		addw	r2, r2, #543
 353 0042 1370     		strb	r3, [r2]
 293:.\Generated_Source\PSoC5/cyfitter_cfg.c **** 	CY_SET_XTND_REG8((void CYFAR *)CYREG_SAR1_SW3, 0x20u);
 354              		.loc 1 293 0
 355 0044 2021     		movs	r1, #32
 356 0046 0332     		adds	r2, r2, #3
 357 0048 1170     		strb	r1, [r2]
 294:.\Generated_Source\PSoC5/cyfitter_cfg.c **** 	CY_SET_XTND_REG8((void CYFAR *)CYREG_BUS_SW0, 0x08u);
 358              		.loc 1 294 0
 359 004a 2D32     		adds	r2, r2, #45
 360 004c 1370     		strb	r3, [r2]
 295:.\Generated_Source\PSoC5/cyfitter_cfg.c **** 	CyDelayUs(10u); /* Allow vref to settle before re-enabling PRES */
 361              		.loc 1 295 0
 362 004e 0A20     		movs	r0, #10
 363 0050 FFF7FEFF 		bl	CyDelayUs
 364              	.LVL27:
 296:.\Generated_Source\PSoC5/cyfitter_cfg.c **** 	CY_SET_XTND_REG8((void CYFAR *)(CYREG_RESET_CR5), (cr5));
 365              		.loc 1 296 0
 366 0054 3D70     		strb	r5, [r7]
 297:.\Generated_Source\PSoC5/cyfitter_cfg.c **** 	CY_SET_XTND_REG8((void CYFAR *)(CYREG_RESET_CR4), (cr4));
 367              		.loc 1 297 0
 368 0056 3470     		strb	r4, [r6]
 298:.\Generated_Source\PSoC5/cyfitter_cfg.c **** 	CY_SET_XTND_REG8((void CYFAR *)CYREG_PUMP_CR0, 0x44u);
 369              		.loc 1 298 0
 370 0058 4422     		movs	r2, #68
 371 005a 054B     		ldr	r3, .L21+16
 372 005c 1A70     		strb	r2, [r3]
 373 005e F8BD     		pop	{r3, r4, r5, r6, r7, pc}
 374              	.LVL28:
 375              	.L22:
 376              		.align	2
 377              	.L21:
 378 0060 CF010049 		.word	1224737231
ARM GAS  C:\Users\dufma\AppData\Local\Temp\ccN4cuig.s 			page 13


 379 0064 F8460040 		.word	1073759992
 380 0068 F9460040 		.word	1073759993
 381 006c 6E580040 		.word	1073764462
 382 0070 76580040 		.word	1073764470
 383              		.cfi_endproc
 384              	.LFE6:
 385              		.size	AnalogSetDefault, .-AnalogSetDefault
 386              		.section	.text.CYCONFIGCPY,"ax",%progbits
 387              		.align	2
 388              		.thumb
 389              		.thumb_func
 390              		.type	CYCONFIGCPY, %function
 391              	CYCONFIGCPY:
 392              	.LFB1:
  70:.\Generated_Source\PSoC5/cyfitter_cfg.c **** 	(void)memcpy(dest, src, n);
 393              		.loc 1 70 0
 394              		.cfi_startproc
 395              		@ args = 0, pretend = 0, frame = 0
 396              		@ frame_needed = 0, uses_anonymous_args = 0
 397              	.LVL29:
 398 0000 08B5     		push	{r3, lr}
 399              		.cfi_def_cfa_offset 8
 400              		.cfi_offset 3, -8
 401              		.cfi_offset 14, -4
  71:.\Generated_Source\PSoC5/cyfitter_cfg.c **** }
 402              		.loc 1 71 0
 403 0002 FFF7FEFF 		bl	memcpy
 404              	.LVL30:
 405 0006 08BD     		pop	{r3, pc}
 406              		.cfi_endproc
 407              	.LFE1:
 408              		.size	CYCONFIGCPY, .-CYCONFIGCPY
 409              		.section	.text.SetAnalogRoutingPumps,"ax",%progbits
 410              		.align	2
 411              		.global	SetAnalogRoutingPumps
 412              		.thumb
 413              		.thumb_func
 414              		.type	SetAnalogRoutingPumps, %function
 415              	SetAnalogRoutingPumps:
 416              	.LFB7:
 299:.\Generated_Source\PSoC5/cyfitter_cfg.c **** }
 300:.\Generated_Source\PSoC5/cyfitter_cfg.c **** 
 301:.\Generated_Source\PSoC5/cyfitter_cfg.c **** 
 302:.\Generated_Source\PSoC5/cyfitter_cfg.c **** /*******************************************************************************
 303:.\Generated_Source\PSoC5/cyfitter_cfg.c **** * Function Name: SetAnalogRoutingPumps
 304:.\Generated_Source\PSoC5/cyfitter_cfg.c **** ********************************************************************************
 305:.\Generated_Source\PSoC5/cyfitter_cfg.c **** *
 306:.\Generated_Source\PSoC5/cyfitter_cfg.c **** * Summary:
 307:.\Generated_Source\PSoC5/cyfitter_cfg.c **** * Enables or disables the analog pumps feeding analog routing switches.
 308:.\Generated_Source\PSoC5/cyfitter_cfg.c **** * Intended to be called at startup, based on the Vdda system configuration;
 309:.\Generated_Source\PSoC5/cyfitter_cfg.c **** * may be called during operation when the user informs us that the Vdda voltage
 310:.\Generated_Source\PSoC5/cyfitter_cfg.c **** * crossed the pump threshold.
 311:.\Generated_Source\PSoC5/cyfitter_cfg.c **** *
 312:.\Generated_Source\PSoC5/cyfitter_cfg.c **** * Parameters:
 313:.\Generated_Source\PSoC5/cyfitter_cfg.c **** *  enabled - 1 to enable the pumps, 0 to disable the pumps
 314:.\Generated_Source\PSoC5/cyfitter_cfg.c **** *
 315:.\Generated_Source\PSoC5/cyfitter_cfg.c **** * Return:
ARM GAS  C:\Users\dufma\AppData\Local\Temp\ccN4cuig.s 			page 14


 316:.\Generated_Source\PSoC5/cyfitter_cfg.c **** *  void
 317:.\Generated_Source\PSoC5/cyfitter_cfg.c **** *
 318:.\Generated_Source\PSoC5/cyfitter_cfg.c **** *******************************************************************************/
 319:.\Generated_Source\PSoC5/cyfitter_cfg.c **** void SetAnalogRoutingPumps(uint8 enabled)
 320:.\Generated_Source\PSoC5/cyfitter_cfg.c **** {
 417              		.loc 1 320 0
 418              		.cfi_startproc
 419              		@ args = 0, pretend = 0, frame = 0
 420              		@ frame_needed = 0, uses_anonymous_args = 0
 421              		@ link register save eliminated.
 422              	.LVL31:
 321:.\Generated_Source\PSoC5/cyfitter_cfg.c **** 	uint8 regValue = CY_GET_XTND_REG8((void CYFAR *)CYREG_PUMP_CR0);
 423              		.loc 1 321 0
 424 0000 054B     		ldr	r3, .L28
 425 0002 1B78     		ldrb	r3, [r3]	@ zero_extendqisi2
 426 0004 DBB2     		uxtb	r3, r3
 427              	.LVL32:
 322:.\Generated_Source\PSoC5/cyfitter_cfg.c **** 	if (enabled != 0u)
 428              		.loc 1 322 0
 429 0006 10B1     		cbz	r0, .L26
 323:.\Generated_Source\PSoC5/cyfitter_cfg.c **** 	{
 324:.\Generated_Source\PSoC5/cyfitter_cfg.c **** 		regValue |= 0x22u;
 430              		.loc 1 324 0
 431 0008 43F02203 		orr	r3, r3, #34
 432              	.LVL33:
 433 000c 01E0     		b	.L27
 434              	.L26:
 325:.\Generated_Source\PSoC5/cyfitter_cfg.c **** 	}
 326:.\Generated_Source\PSoC5/cyfitter_cfg.c **** 	else
 327:.\Generated_Source\PSoC5/cyfitter_cfg.c **** 	{
 328:.\Generated_Source\PSoC5/cyfitter_cfg.c **** 		regValue &= (uint8)~0x22u;
 435              		.loc 1 328 0
 436 000e 03F0DD03 		and	r3, r3, #221
 437              	.LVL34:
 438              	.L27:
 329:.\Generated_Source\PSoC5/cyfitter_cfg.c **** 	}
 330:.\Generated_Source\PSoC5/cyfitter_cfg.c **** 	CY_SET_XTND_REG8((void CYFAR *)CYREG_PUMP_CR0, regValue);
 439              		.loc 1 330 0
 440 0012 014A     		ldr	r2, .L28
 441 0014 1370     		strb	r3, [r2]
 442 0016 7047     		bx	lr
 443              	.L29:
 444              		.align	2
 445              	.L28:
 446 0018 76580040 		.word	1073764470
 447              		.cfi_endproc
 448              	.LFE7:
 449              		.size	SetAnalogRoutingPumps, .-SetAnalogRoutingPumps
 450              		.section	.text.cyfitter_cfg,"ax",%progbits
 451              		.align	2
 452              		.global	cyfitter_cfg
 453              		.thumb
 454              		.thumb_func
 455              		.type	cyfitter_cfg, %function
 456              	cyfitter_cfg:
 457              	.LFB8:
 331:.\Generated_Source\PSoC5/cyfitter_cfg.c **** }
ARM GAS  C:\Users\dufma\AppData\Local\Temp\ccN4cuig.s 			page 15


 332:.\Generated_Source\PSoC5/cyfitter_cfg.c **** 
 333:.\Generated_Source\PSoC5/cyfitter_cfg.c **** #define CY_AMUX_UNUSED CYREG_BOOST_SR
 334:.\Generated_Source\PSoC5/cyfitter_cfg.c **** 
 335:.\Generated_Source\PSoC5/cyfitter_cfg.c **** 
 336:.\Generated_Source\PSoC5/cyfitter_cfg.c **** /*******************************************************************************
 337:.\Generated_Source\PSoC5/cyfitter_cfg.c **** * Function Name: cyfitter_cfg
 338:.\Generated_Source\PSoC5/cyfitter_cfg.c **** ********************************************************************************
 339:.\Generated_Source\PSoC5/cyfitter_cfg.c **** * Summary:
 340:.\Generated_Source\PSoC5/cyfitter_cfg.c **** *  This function is called by the start-up code for the selected device. It
 341:.\Generated_Source\PSoC5/cyfitter_cfg.c **** *  performs all of the necessary device configuration based on the design
 342:.\Generated_Source\PSoC5/cyfitter_cfg.c **** *  settings.  This includes settings from the Design Wide Resources (DWR) such
 343:.\Generated_Source\PSoC5/cyfitter_cfg.c **** *  as Clocks and Pins as well as any component configuration that is necessary.
 344:.\Generated_Source\PSoC5/cyfitter_cfg.c **** *
 345:.\Generated_Source\PSoC5/cyfitter_cfg.c **** * Parameters:  
 346:.\Generated_Source\PSoC5/cyfitter_cfg.c **** *   void
 347:.\Generated_Source\PSoC5/cyfitter_cfg.c **** *
 348:.\Generated_Source\PSoC5/cyfitter_cfg.c **** * Return:
 349:.\Generated_Source\PSoC5/cyfitter_cfg.c **** *   void
 350:.\Generated_Source\PSoC5/cyfitter_cfg.c **** *
 351:.\Generated_Source\PSoC5/cyfitter_cfg.c **** *******************************************************************************/
 352:.\Generated_Source\PSoC5/cyfitter_cfg.c **** 
 353:.\Generated_Source\PSoC5/cyfitter_cfg.c **** void cyfitter_cfg(void)
 354:.\Generated_Source\PSoC5/cyfitter_cfg.c **** {
 458              		.loc 1 354 0
 459              		.cfi_startproc
 460              		@ args = 0, pretend = 0, frame = 0
 461              		@ frame_needed = 0, uses_anonymous_args = 0
 462 0000 38B5     		push	{r3, r4, r5, lr}
 463              		.cfi_def_cfa_offset 16
 464              		.cfi_offset 3, -16
 465              		.cfi_offset 4, -12
 466              		.cfi_offset 5, -8
 467              		.cfi_offset 14, -4
 355:.\Generated_Source\PSoC5/cyfitter_cfg.c **** #ifdef CYGlobalIntDisable
 356:.\Generated_Source\PSoC5/cyfitter_cfg.c **** 	/* Disable interrupts by default. Let user enable if/when they want. */
 357:.\Generated_Source\PSoC5/cyfitter_cfg.c **** 	CYGlobalIntDisable
 468              		.loc 1 357 0
 469              	@ 357 ".\Generated_Source\PSoC5\cyfitter_cfg.c" 1
 470 0002 72B6     		CPSID   i
 471              	@ 0 "" 2
 358:.\Generated_Source\PSoC5/cyfitter_cfg.c **** #endif
 359:.\Generated_Source\PSoC5/cyfitter_cfg.c **** 
 360:.\Generated_Source\PSoC5/cyfitter_cfg.c **** 	/* Enable/Disable Debug functionality based on settings from System DWR */
 361:.\Generated_Source\PSoC5/cyfitter_cfg.c **** 	CY_SET_XTND_REG8((void CYFAR *)CYREG_MLOGIC_DEBUG, (CY_GET_XTND_REG8((void CYFAR *)CYREG_MLOGIC_DE
 472              		.loc 1 361 0
 473              		.thumb
 474 0004 3A4A     		ldr	r2, .L36
 475 0006 1378     		ldrb	r3, [r2]	@ zero_extendqisi2
 476 0008 43F00403 		orr	r3, r3, #4
 477 000c 1370     		strb	r3, [r2]
 478              	.LVL35:
 479              	.LBB3:
 362:.\Generated_Source\PSoC5/cyfitter_cfg.c **** 
 363:.\Generated_Source\PSoC5/cyfitter_cfg.c **** 	{
 364:.\Generated_Source\PSoC5/cyfitter_cfg.c **** 
 365:.\Generated_Source\PSoC5/cyfitter_cfg.c **** 		CYPACKED typedef struct {
 366:.\Generated_Source\PSoC5/cyfitter_cfg.c **** 			void CYFAR *address;
ARM GAS  C:\Users\dufma\AppData\Local\Temp\ccN4cuig.s 			page 16


 367:.\Generated_Source\PSoC5/cyfitter_cfg.c **** 			uint16 size;
 368:.\Generated_Source\PSoC5/cyfitter_cfg.c **** 		} CYPACKED_ATTR cfg_memset_t;
 369:.\Generated_Source\PSoC5/cyfitter_cfg.c **** 
 370:.\Generated_Source\PSoC5/cyfitter_cfg.c **** 
 371:.\Generated_Source\PSoC5/cyfitter_cfg.c **** 		CYPACKED typedef struct {
 372:.\Generated_Source\PSoC5/cyfitter_cfg.c **** 			void CYFAR *dest;
 373:.\Generated_Source\PSoC5/cyfitter_cfg.c **** 			const void CYFAR *src;
 374:.\Generated_Source\PSoC5/cyfitter_cfg.c **** 			uint16 size;
 375:.\Generated_Source\PSoC5/cyfitter_cfg.c **** 		} CYPACKED_ATTR cfg_memcpy_t;
 376:.\Generated_Source\PSoC5/cyfitter_cfg.c **** 
 377:.\Generated_Source\PSoC5/cyfitter_cfg.c **** 		static const cfg_memset_t CYCODE cfg_memset_list [] = {
 378:.\Generated_Source\PSoC5/cyfitter_cfg.c **** 			/* address, size */
 379:.\Generated_Source\PSoC5/cyfitter_cfg.c **** 			{(void CYFAR *)(CYREG_I2C_XCFG), 25u},
 380:.\Generated_Source\PSoC5/cyfitter_cfg.c **** 			{(void CYFAR *)(CYREG_TMR0_CFG0), 48u},
 381:.\Generated_Source\PSoC5/cyfitter_cfg.c **** 			{(void CYFAR *)(CYREG_PRT4_DR), 48u},
 382:.\Generated_Source\PSoC5/cyfitter_cfg.c **** 			{(void CYFAR *)(CYDEV_UCFG_B0_P0_U0_BASE), 4096u},
 383:.\Generated_Source\PSoC5/cyfitter_cfg.c **** 			{(void CYFAR *)(CYDEV_UCFG_B1_P2_U0_BASE), 2048u},
 384:.\Generated_Source\PSoC5/cyfitter_cfg.c **** 			{(void CYFAR *)(CYDEV_UCFG_DSI0_BASE), 2560u},
 385:.\Generated_Source\PSoC5/cyfitter_cfg.c **** 			{(void CYFAR *)(CYDEV_UCFG_DSI12_BASE), 512u},
 386:.\Generated_Source\PSoC5/cyfitter_cfg.c **** 			{(void CYFAR *)(CYREG_BCTL0_MDCLK_EN), 32u},
 387:.\Generated_Source\PSoC5/cyfitter_cfg.c **** 		};
 388:.\Generated_Source\PSoC5/cyfitter_cfg.c **** 
 389:.\Generated_Source\PSoC5/cyfitter_cfg.c **** 		static const cfg_memcpy_t CYCODE cfg_memcpy_list [] = {
 390:.\Generated_Source\PSoC5/cyfitter_cfg.c **** 			/* dest, src, size */
 391:.\Generated_Source\PSoC5/cyfitter_cfg.c **** 			{(void CYFAR *)(CYDEV_PRTDSI_PRT12_BASE), BS_IOPORT_7_VAL, 6u},
 392:.\Generated_Source\PSoC5/cyfitter_cfg.c **** 		};
 393:.\Generated_Source\PSoC5/cyfitter_cfg.c **** 
 394:.\Generated_Source\PSoC5/cyfitter_cfg.c **** 		uint8 CYDATA i;
 395:.\Generated_Source\PSoC5/cyfitter_cfg.c **** 
 396:.\Generated_Source\PSoC5/cyfitter_cfg.c **** 		/* Zero out critical memory blocks before beginning configuration */
 397:.\Generated_Source\PSoC5/cyfitter_cfg.c **** 		for (i = 0u; i < (sizeof(cfg_memset_list)/sizeof(cfg_memset_list[0])); i++)
 480              		.loc 1 397 0
 481 000e 0024     		movs	r4, #0
 482 0010 0CE0     		b	.L31
 483              	.LVL36:
 484              	.L32:
 485              	.LBB4:
 398:.\Generated_Source\PSoC5/cyfitter_cfg.c **** 		{
 399:.\Generated_Source\PSoC5/cyfitter_cfg.c **** 			const cfg_memset_t CYCODE * CYDATA ms = &cfg_memset_list[i];
 400:.\Generated_Source\PSoC5/cyfitter_cfg.c **** 			CYMEMZERO(ms->address, (size_t)(uint32)(ms->size));
 486              		.loc 1 400 0 discriminator 3
 487 0012 3849     		ldr	r1, .L36+4
 488 0014 6300     		lsls	r3, r4, #1
 489 0016 1A19     		adds	r2, r3, r4
 490 0018 5200     		lsls	r2, r2, #1
 491 001a 0A44     		add	r2, r2, r1
 492 001c 2344     		add	r3, r3, r4
 493 001e 5B00     		lsls	r3, r3, #1
 494 0020 C858     		ldr	r0, [r1, r3]	@ unaligned
 495 0022 9188     		ldrh	r1, [r2, #4]
 496 0024 FFF7FEFF 		bl	CYMEMZERO
 497              	.LVL37:
 498              	.LBE4:
 397:.\Generated_Source\PSoC5/cyfitter_cfg.c **** 		{
 499              		.loc 1 397 0 discriminator 3
 500 0028 0134     		adds	r4, r4, #1
 501              	.LVL38:
ARM GAS  C:\Users\dufma\AppData\Local\Temp\ccN4cuig.s 			page 17


 502 002a E4B2     		uxtb	r4, r4
 503              	.LVL39:
 504              	.L31:
 397:.\Generated_Source\PSoC5/cyfitter_cfg.c **** 		{
 505              		.loc 1 397 0 is_stmt 0 discriminator 1
 506 002c 072C     		cmp	r4, #7
 507 002e F0D9     		bls	.L32
 508 0030 0024     		movs	r4, #0
 509              	.LVL40:
 510 0032 0BE0     		b	.L33
 511              	.LVL41:
 512              	.L34:
 513              	.LBB5:
 401:.\Generated_Source\PSoC5/cyfitter_cfg.c **** 		}
 402:.\Generated_Source\PSoC5/cyfitter_cfg.c **** 
 403:.\Generated_Source\PSoC5/cyfitter_cfg.c **** 		/* Copy device configuration data into registers */
 404:.\Generated_Source\PSoC5/cyfitter_cfg.c **** 		for (i = 0u; i < (sizeof(cfg_memcpy_list)/sizeof(cfg_memcpy_list[0])); i++)
 405:.\Generated_Source\PSoC5/cyfitter_cfg.c **** 		{
 406:.\Generated_Source\PSoC5/cyfitter_cfg.c **** 			const cfg_memcpy_t CYCODE * CYDATA mc = &cfg_memcpy_list[i];
 407:.\Generated_Source\PSoC5/cyfitter_cfg.c **** 			void * CYDATA destPtr = mc->dest;
 514              		.loc 1 407 0 is_stmt 1 discriminator 3
 515 0034 2F49     		ldr	r1, .L36+4
 516 0036 A300     		lsls	r3, r4, #2
 517 0038 1A19     		adds	r2, r3, r4
 518 003a 5200     		lsls	r2, r2, #1
 519 003c 0A44     		add	r2, r2, r1
 520              	.LVL42:
 408:.\Generated_Source\PSoC5/cyfitter_cfg.c **** 			const void * CYDATA srcPtr = mc->src;
 409:.\Generated_Source\PSoC5/cyfitter_cfg.c **** 			uint16 CYDATA numBytes = mc->size;
 410:.\Generated_Source\PSoC5/cyfitter_cfg.c **** 			CYCONFIGCPY(destPtr, srcPtr, numBytes);
 521              		.loc 1 410 0 discriminator 3
 522 003e 106B     		ldr	r0, [r2, #48]	@ unaligned
 523              	.LVL43:
 524 0040 516B     		ldr	r1, [r2, #52]	@ unaligned
 525              	.LVL44:
 526 0042 0622     		movs	r2, #6
 527 0044 FFF7FEFF 		bl	CYCONFIGCPY
 528              	.LVL45:
 529              	.LBE5:
 404:.\Generated_Source\PSoC5/cyfitter_cfg.c **** 		{
 530              		.loc 1 404 0 discriminator 3
 531 0048 0134     		adds	r4, r4, #1
 532              	.LVL46:
 533 004a E4B2     		uxtb	r4, r4
 534              	.LVL47:
 535              	.L33:
 404:.\Generated_Source\PSoC5/cyfitter_cfg.c **** 		{
 536              		.loc 1 404 0 is_stmt 0 discriminator 1
 537 004c 002C     		cmp	r4, #0
 538 004e F1D0     		beq	.L34
 411:.\Generated_Source\PSoC5/cyfitter_cfg.c **** 		}
 412:.\Generated_Source\PSoC5/cyfitter_cfg.c **** 
 413:.\Generated_Source\PSoC5/cyfitter_cfg.c **** 		cfg_write_bytes32(cy_cfg_addr_table, cy_cfg_data_table);
 539              		.loc 1 413 0 is_stmt 1
 540 0050 4FF09040 		mov	r0, #1207959552
 541 0054 2849     		ldr	r1, .L36+8
 542 0056 FFF7FEFF 		bl	cfg_write_bytes32
ARM GAS  C:\Users\dufma\AppData\Local\Temp\ccN4cuig.s 			page 18


 543              	.LVL48:
 414:.\Generated_Source\PSoC5/cyfitter_cfg.c **** 
 415:.\Generated_Source\PSoC5/cyfitter_cfg.c **** 		/* Enable digital routing */
 416:.\Generated_Source\PSoC5/cyfitter_cfg.c **** 		CY_SET_XTND_REG8((void CYFAR *)CYREG_BCTL0_BANK_CTL, CY_GET_XTND_REG8((void CYFAR *)CYREG_BCTL0_B
 544              		.loc 1 416 0
 545 005a 284A     		ldr	r2, .L36+12
 546 005c 1378     		ldrb	r3, [r2]	@ zero_extendqisi2
 547 005e 43F00203 		orr	r3, r3, #2
 548 0062 1370     		strb	r3, [r2]
 417:.\Generated_Source\PSoC5/cyfitter_cfg.c **** 		CY_SET_XTND_REG8((void CYFAR *)CYREG_BCTL1_BANK_CTL, CY_GET_XTND_REG8((void CYFAR *)CYREG_BCTL1_B
 549              		.loc 1 417 0
 550 0064 1032     		adds	r2, r2, #16
 551 0066 1378     		ldrb	r3, [r2]	@ zero_extendqisi2
 552 0068 43F00203 		orr	r3, r3, #2
 553 006c 1370     		strb	r3, [r2]
 418:.\Generated_Source\PSoC5/cyfitter_cfg.c **** 
 419:.\Generated_Source\PSoC5/cyfitter_cfg.c **** 		/* Enable UDB array */
 420:.\Generated_Source\PSoC5/cyfitter_cfg.c **** 		CY_SET_XTND_REG8((void CYFAR *)CYREG_PM_ACT_CFG0, CY_GET_XTND_REG8((void CYFAR *)CYREG_PM_ACT_CFG
 554              		.loc 1 420 0
 555 006e 244C     		ldr	r4, .L36+16
 556              	.LVL49:
 557 0070 2378     		ldrb	r3, [r4]	@ zero_extendqisi2
 558 0072 43F04003 		orr	r3, r3, #64
 559 0076 2370     		strb	r3, [r4]
 421:.\Generated_Source\PSoC5/cyfitter_cfg.c **** 		CY_SET_XTND_REG8((void CYFAR *)CYREG_PM_AVAIL_CR2, CY_GET_XTND_REG8((void CYFAR *)CYREG_PM_AVAIL_
 560              		.loc 1 421 0
 561 0078 A2F58632 		sub	r2, r2, #68608
 562 007c 513A     		subs	r2, r2, #81
 563 007e 1378     		ldrb	r3, [r2]	@ zero_extendqisi2
 564 0080 43F01003 		orr	r3, r3, #16
 565 0084 1370     		strb	r3, [r2]
 566              	.LBE3:
 422:.\Generated_Source\PSoC5/cyfitter_cfg.c **** 	}
 423:.\Generated_Source\PSoC5/cyfitter_cfg.c **** 
 424:.\Generated_Source\PSoC5/cyfitter_cfg.c **** 
 425:.\Generated_Source\PSoC5/cyfitter_cfg.c **** 	/* Perform second pass device configuration. These items must be configured in specific order afte
 426:.\Generated_Source\PSoC5/cyfitter_cfg.c **** 	CYCONFIGCPY((void CYFAR *)(CYREG_PRT0_DM0), (const void CYFAR *)(BS_IOPINS0_0_VAL), 8u);
 567              		.loc 1 426 0
 568 0086 1F48     		ldr	r0, .L36+20
 569 0088 1F49     		ldr	r1, .L36+24
 570 008a 0822     		movs	r2, #8
 571 008c FFF7FEFF 		bl	CYCONFIGCPY
 572              	.LVL50:
 427:.\Generated_Source\PSoC5/cyfitter_cfg.c **** 	CYCONFIGCPY((void CYFAR *)(CYREG_PRT12_DR), (const void CYFAR *)(BS_IOPINS0_7_VAL), 10u);
 573              		.loc 1 427 0
 574 0090 1E48     		ldr	r0, .L36+28
 575 0092 1F49     		ldr	r1, .L36+32
 576 0094 0A22     		movs	r2, #10
 577 0096 FFF7FEFF 		bl	CYCONFIGCPY
 578              	.LVL51:
 428:.\Generated_Source\PSoC5/cyfitter_cfg.c **** 	CYCONFIGCPY((void CYFAR *)(CYREG_PRT15_DM0), (const void CYFAR *)(BS_IOPINS0_8_VAL), 8u);
 579              		.loc 1 428 0
 580 009a 1E48     		ldr	r0, .L36+36
 581 009c 1E49     		ldr	r1, .L36+40
 582 009e 0822     		movs	r2, #8
 583 00a0 FFF7FEFF 		bl	CYCONFIGCPY
 584              	.LVL52:
ARM GAS  C:\Users\dufma\AppData\Local\Temp\ccN4cuig.s 			page 19


 429:.\Generated_Source\PSoC5/cyfitter_cfg.c **** 	CYCONFIGCPY((void CYFAR *)(CYREG_PRT1_DM0), (const void CYFAR *)(BS_IOPINS0_1_VAL), 8u);
 585              		.loc 1 429 0
 586 00a4 1D48     		ldr	r0, .L36+44
 587 00a6 1E49     		ldr	r1, .L36+48
 588 00a8 0822     		movs	r2, #8
 589 00aa FFF7FEFF 		bl	CYCONFIGCPY
 590              	.LVL53:
 430:.\Generated_Source\PSoC5/cyfitter_cfg.c **** 	CYCONFIGCPY((void CYFAR *)(CYREG_PRT2_DM0), (const void CYFAR *)(BS_IOPINS0_2_VAL), 8u);
 591              		.loc 1 430 0
 592 00ae 1D48     		ldr	r0, .L36+52
 593 00b0 1D49     		ldr	r1, .L36+56
 594 00b2 0822     		movs	r2, #8
 595 00b4 FFF7FEFF 		bl	CYCONFIGCPY
 596              	.LVL54:
 431:.\Generated_Source\PSoC5/cyfitter_cfg.c **** 	CYCONFIGCPY((void CYFAR *)(CYREG_PRT3_DM0), (const void CYFAR *)(BS_IOPINS0_3_VAL), 8u);
 597              		.loc 1 431 0
 598 00b8 1C48     		ldr	r0, .L36+60
 599 00ba 1D49     		ldr	r1, .L36+64
 600 00bc 0822     		movs	r2, #8
 601 00be FFF7FEFF 		bl	CYCONFIGCPY
 602              	.LVL55:
 432:.\Generated_Source\PSoC5/cyfitter_cfg.c **** 	/* Switch Boost to the precision bandgap reference from its internal reference */
 433:.\Generated_Source\PSoC5/cyfitter_cfg.c **** 	CY_SET_REG8((void CYXDATA *)CYREG_BOOST_CR2, (CY_GET_REG8((void CYXDATA *)CYREG_BOOST_CR2) | 0x08u
 603              		.loc 1 433 0
 604 00c2 1C4A     		ldr	r2, .L36+68
 605 00c4 1378     		ldrb	r3, [r2]	@ zero_extendqisi2
 606 00c6 43F00803 		orr	r3, r3, #8
 607 00ca 1370     		strb	r3, [r2]
 434:.\Generated_Source\PSoC5/cyfitter_cfg.c **** 
 435:.\Generated_Source\PSoC5/cyfitter_cfg.c **** 	/* Set Flash Cycles based on max possible frequency in case a glitch occurs during ClockSetup(). *
 436:.\Generated_Source\PSoC5/cyfitter_cfg.c **** 	CY_SET_XTND_REG8((void CYFAR *)(CYREG_CACHE_CC_CTL), (((CYDEV_INSTRUCT_CACHE_ENABLED) != 0) ? 0x61
 608              		.loc 1 436 0
 609 00cc 1A4D     		ldr	r5, .L36+72
 610 00ce 6123     		movs	r3, #97
 611 00d0 2B70     		strb	r3, [r5]
 437:.\Generated_Source\PSoC5/cyfitter_cfg.c **** 	/* Setup clocks based on selections from Clock DWR */
 438:.\Generated_Source\PSoC5/cyfitter_cfg.c **** 	ClockSetup();
 612              		.loc 1 438 0
 613 00d2 FFF7FEFF 		bl	ClockSetup
 614              	.LVL56:
 439:.\Generated_Source\PSoC5/cyfitter_cfg.c **** 	/* Set Flash Cycles based on newly configured 24.00MHz Bus Clock. */
 440:.\Generated_Source\PSoC5/cyfitter_cfg.c **** 	CY_SET_XTND_REG8((void CYFAR *)(CYREG_CACHE_CC_CTL), (((CYDEV_INSTRUCT_CACHE_ENABLED) != 0) ? 0x81
 615              		.loc 1 440 0
 616 00d6 8123     		movs	r3, #129
 617 00d8 2B70     		strb	r3, [r5]
 441:.\Generated_Source\PSoC5/cyfitter_cfg.c **** 	CY_SET_XTND_REG8((void CYFAR *)(CYREG_PANTHER_WAITPIPE), 0x01u);
 618              		.loc 1 441 0
 619 00da 0122     		movs	r2, #1
 620 00dc 174B     		ldr	r3, .L36+76
 621 00de 1A70     		strb	r2, [r3]
 442:.\Generated_Source\PSoC5/cyfitter_cfg.c **** 
 443:.\Generated_Source\PSoC5/cyfitter_cfg.c **** 	/* Perform basic analog initialization to defaults */
 444:.\Generated_Source\PSoC5/cyfitter_cfg.c **** 	AnalogSetDefault();
 622              		.loc 1 444 0
 623 00e0 FFF7FEFF 		bl	AnalogSetDefault
 624              	.LVL57:
 445:.\Generated_Source\PSoC5/cyfitter_cfg.c **** 
ARM GAS  C:\Users\dufma\AppData\Local\Temp\ccN4cuig.s 			page 20


 446:.\Generated_Source\PSoC5/cyfitter_cfg.c **** 	/* Configure alternate active mode */
 447:.\Generated_Source\PSoC5/cyfitter_cfg.c **** 	CYCONFIGCPY((void CYFAR *)CYDEV_PM_STBY_BASE, (const void CYFAR *)CYDEV_PM_ACT_BASE, 14u);
 625              		.loc 1 447 0
 626 00e4 1648     		ldr	r0, .L36+80
 627 00e6 2146     		mov	r1, r4
 628 00e8 0E22     		movs	r2, #14
 629 00ea FFF7FEFF 		bl	CYCONFIGCPY
 630              	.LVL58:
 631 00ee 38BD     		pop	{r3, r4, r5, pc}
 632              	.L37:
 633              		.align	2
 634              	.L36:
 635 00f0 E8460040 		.word	1073759976
 636 00f4 00000000 		.word	.LANCHOR0
 637 00f8 84000048 		.word	1207959684
 638 00fc 03500140 		.word	1073827843
 639 0100 A0430040 		.word	1073759136
 640 0104 02510040 		.word	1073762562
 641 0108 40070048 		.word	1207961408
 642 010c C0510040 		.word	1073762752
 643 0110 48070048 		.word	1207961416
 644 0114 F2510040 		.word	1073762802
 645 0118 54070048 		.word	1207961428
 646 011c 12510040 		.word	1073762578
 647 0120 5C070048 		.word	1207961436
 648 0124 22510040 		.word	1073762594
 649 0128 64070048 		.word	1207961444
 650 012c 32510040 		.word	1073762610
 651 0130 6C070048 		.word	1207961452
 652 0134 22430040 		.word	1073759010
 653 0138 00480040 		.word	1073760256
 654 013c 04000840 		.word	1074266116
 655 0140 B0430040 		.word	1073759152
 656              		.cfi_endproc
 657              	.LFE8:
 658              		.size	cyfitter_cfg, .-cyfitter_cfg
 659              		.section	.rodata
 660              		.align	2
 661              		.set	.LANCHOR0,. + 0
 662              		.type	cfg_memset_list.4887, %object
 663              		.size	cfg_memset_list.4887, 48
 664              	cfg_memset_list.4887:
 665 0000 C8490040 		.word	1073760712
 666 0004 1900     		.short	25
 667 0006 004F0040 		.4byte	1073762048
 668 000a 3000     		.short	48
 669 000c 40510040 		.word	1073762624
 670 0010 3000     		.short	48
 671 0012 00000140 		.4byte	1073807360
 672 0016 0010     		.short	4096
 673 0018 00140140 		.word	1073812480
 674 001c 0008     		.short	2048
 675 001e 00400140 		.4byte	1073823744
 676 0022 000A     		.short	2560
 677 0024 004C0140 		.word	1073826816
 678 0028 0002     		.short	512
 679 002a 00500140 		.4byte	1073827840
ARM GAS  C:\Users\dufma\AppData\Local\Temp\ccN4cuig.s 			page 21


 680 002e 2000     		.short	32
 681              		.type	cfg_memcpy_list.4888, %object
 682              		.size	cfg_memcpy_list.4888, 10
 683              	cfg_memcpy_list.4888:
 684 0030 60520040 		.word	1073762912
 685 0034 38070048 		.word	1207961400
 686 0038 0600     		.short	6
 687 003a 0000     		.text
 688              	.Letext0:
 689              		.file 2 "c:\\program files (x86)\\cypress\\psoc creator\\3.3\\psoc creator\\import\\gnu\\arm\\4.9.
 690              		.file 3 ".\\Generated_Source\\PSoC5\\cytypes.h"
 691              		.file 4 ".\\Generated_Source\\PSoC5\\CyLib.h"