ARM GAS  C:\Users\dufma\AppData\Local\Temp\cc5J7mTL.s 			page 1


   1              		.syntax unified
   2              		.cpu cortex-m3
   3              		.fpu softvfp
   4              		.eabi_attribute 20, 1
   5              		.eabi_attribute 21, 1
   6              		.eabi_attribute 23, 3
   7              		.eabi_attribute 24, 1
   8              		.eabi_attribute 25, 1
   9              		.eabi_attribute 26, 1
  10              		.eabi_attribute 30, 1
  11              		.eabi_attribute 34, 1
  12              		.eabi_attribute 18, 4
  13              		.thumb
  14              		.file	"main.c"
  15              		.text
  16              	.Ltext0:
  17              		.cfi_sections	.debug_frame
  18              		.global	__aeabi_f2d
  19              		.section	.text.main,"ax",%progbits
  20              		.align	2
  21              		.global	main
  22              		.thumb
  23              		.thumb_func
  24              		.type	main, %function
  25              	main:
  26              	.LFB63:
  27              		.file 1 ".\\main.c"
   1:.\main.c      **** /**
   2:.\main.c      **** * @mainpage ZumoBot Project
   3:.\main.c      **** * @brief    You can make your own ZumoBot with various sensors.
   4:.\main.c      **** * @details  <br><br>
   5:.\main.c      ****     <p>
   6:.\main.c      ****     <B>General</B><br>
   7:.\main.c      ****     You will use Pololu Zumo Shields for your robot project with CY8CKIT-059(PSoC 5LP) from Cypress
   8:.\main.c      ****     library has basic methods of various sensors and communications so that you can make what you w
   9:.\main.c      ****     <br><br>
  10:.\main.c      ****     </p>
  11:.\main.c      ****     
  12:.\main.c      ****     <p>
  13:.\main.c      ****     <B>Sensors</B><br>
  14:.\main.c      ****     &nbsp;Included: <br>
  15:.\main.c      ****         &nbsp;&nbsp;&nbsp;&nbsp;LSM303D: Accelerometer & Magnetometer<br>
  16:.\main.c      ****         &nbsp;&nbsp;&nbsp;&nbsp;L3GD20H: Gyroscope<br>
  17:.\main.c      ****         &nbsp;&nbsp;&nbsp;&nbsp;Reflectance sensor<br>
  18:.\main.c      ****         &nbsp;&nbsp;&nbsp;&nbsp;Motors
  19:.\main.c      ****     &nbsp;Wii nunchuck<br>
  20:.\main.c      ****     &nbsp;TSOP-2236: IR Receiver<br>
  21:.\main.c      ****     &nbsp;HC-SR04: Ultrasonic sensor<br>
  22:.\main.c      ****     &nbsp;APDS-9301: Ambient light sensor<br>
  23:.\main.c      ****     &nbsp;IR LED <br><br><br>
  24:.\main.c      ****     </p>
  25:.\main.c      ****     
  26:.\main.c      ****     <p>
  27:.\main.c      ****     <B>Communication</B><br>
  28:.\main.c      ****     I2C, UART, Serial<br>
  29:.\main.c      ****     </p>
  30:.\main.c      **** */
ARM GAS  C:\Users\dufma\AppData\Local\Temp\cc5J7mTL.s 			page 2


  31:.\main.c      **** 
  32:.\main.c      **** #include <project.h>
  33:.\main.c      **** #include <stdio.h>
  34:.\main.c      **** #include "Motor.h"
  35:.\main.c      **** #include "Ultra.h"
  36:.\main.c      **** #include "Nunchuk.h"
  37:.\main.c      **** #include "Reflectance.h"
  38:.\main.c      **** #include "I2C_made.h"
  39:.\main.c      **** #include "Gyro.h"
  40:.\main.c      **** #include "Accel_magnet.h"
  41:.\main.c      **** #include "IR.h"
  42:.\main.c      **** #include "Ambient.h"
  43:.\main.c      **** 
  44:.\main.c      **** int rread(void);
  45:.\main.c      **** 
  46:.\main.c      **** /**
  47:.\main.c      ****  * @file    main.c
  48:.\main.c      ****  * @brief   
  49:.\main.c      ****  * @details  ** You should enable global interrupt for operating properly. **<br>&nbsp;&nbsp;&nbsp;
  50:.\main.c      **** 
  51:.\main.c      **** int main()
  52:.\main.c      **** {
  53:.\main.c      ****     
  54:.\main.c      **** }
  55:.\main.c      **** */
  56:.\main.c      **** 
  57:.\main.c      **** //*//battery level//
  58:.\main.c      **** int main()
  59:.\main.c      **** {
  28              		.loc 1 59 0
  29              		.cfi_startproc
  30              		@ args = 0, pretend = 0, frame = 0
  31              		@ frame_needed = 0, uses_anonymous_args = 0
  32 0000 10B5     		push	{r4, lr}
  33              		.cfi_def_cfa_offset 8
  34              		.cfi_offset 4, -8
  35              		.cfi_offset 14, -4
  60:.\main.c      ****     CyGlobalIntEnable; 
  36              		.loc 1 60 0
  37              	@ 60 ".\main.c" 1
  38 0002 62B6     		CPSIE   i
  39              	@ 0 "" 2
  61:.\main.c      ****     UART_Start();
  40              		.loc 1 61 0
  41              		.thumb
  42 0004 FFF7FEFF 		bl	UART_Start
  43              	.LVL0:
  62:.\main.c      ****     ADC_Battery_Start();        
  44              		.loc 1 62 0
  45 0008 FFF7FEFF 		bl	ADC_Battery_Start
  46              	.LVL1:
  47              	.L3:
  48              	.LBB2:
  63:.\main.c      ****     
  64:.\main.c      ****     for(;;)
  65:.\main.c      ****     {
  66:.\main.c      ****         int16 adcresult =0;
ARM GAS  C:\Users\dufma\AppData\Local\Temp\cc5J7mTL.s 			page 3


  67:.\main.c      ****         float volts = 0.0;
  68:.\main.c      ****         
  69:.\main.c      ****         ADC_Battery_StartConvert();
  49              		.loc 1 69 0
  50 000c FFF7FEFF 		bl	ADC_Battery_StartConvert
  51              	.LVL2:
  70:.\main.c      ****         if(ADC_Battery_IsEndConversion(ADC_Battery_WAIT_FOR_RESULT))    // wait for get ADC convert
  52              		.loc 1 70 0
  53 0010 0020     		movs	r0, #0
  54 0012 FFF7FEFF 		bl	ADC_Battery_IsEndConversion
  55              	.LVL3:
  56 0016 10B1     		cbz	r0, .L4
  71:.\main.c      ****             adcresult = ADC_Battery_GetResult16();
  57              		.loc 1 71 0
  58 0018 FFF7FEFF 		bl	ADC_Battery_GetResult16
  59              	.LVL4:
  60 001c 00E0     		b	.L2
  61              	.LVL5:
  62              	.L4:
  66:.\main.c      ****         float volts = 0.0;
  63              		.loc 1 66 0
  64 001e 0020     		movs	r0, #0
  65              	.LVL6:
  66              	.L2:
  72:.\main.c      ****         volts = ADC_Battery_CountsTo_Volts(adcresult);                  // convert value to Volts
  67              		.loc 1 72 0
  68 0020 04B2     		sxth	r4, r0
  69 0022 2046     		mov	r0, r4
  70 0024 FFF7FEFF 		bl	ADC_Battery_CountsTo_Volts
  71              	.LVL7:
  73:.\main.c      ****         
  74:.\main.c      ****         // If you want to print value
  75:.\main.c      ****         printf("%d %f\r\n",adcresult, volts);
  72              		.loc 1 75 0
  73 0028 FFF7FEFF 		bl	__aeabi_f2d
  74              	.LVL8:
  75 002c 0246     		mov	r2, r0
  76 002e 0B46     		mov	r3, r1
  77 0030 0248     		ldr	r0, .L6
  78 0032 2146     		mov	r1, r4
  79 0034 FFF7FEFF 		bl	printf
  80              	.LVL9:
  81              	.LBE2:
  76:.\main.c      ****     }
  82              		.loc 1 76 0
  83 0038 E8E7     		b	.L3
  84              	.L7:
  85 003a 00BF     		.align	2
  86              	.L6:
  87 003c 00000000 		.word	.LC0
  88              		.cfi_endproc
  89              	.LFE63:
  90              		.size	main, .-main
  91              		.section	.text._write,"ax",%progbits
  92              		.align	2
  93              		.global	_write
  94              		.thumb
ARM GAS  C:\Users\dufma\AppData\Local\Temp\cc5J7mTL.s 			page 4


  95              		.thumb_func
  96              		.type	_write, %function
  97              	_write:
  98              	.LFB64:
  77:.\main.c      ****  }   
  78:.\main.c      **** //*/
  79:.\main.c      **** 
  80:.\main.c      **** 
  81:.\main.c      **** /*//ultra sonic sensor//
  82:.\main.c      **** int main()
  83:.\main.c      **** {
  84:.\main.c      ****     CyGlobalIntEnable; 
  85:.\main.c      ****     UART_Start();
  86:.\main.c      ****     Ultra_Start();                          // Ultra Sonic Start function
  87:.\main.c      ****  }   
  88:.\main.c      **** //*/
  89:.\main.c      **** 
  90:.\main.c      **** 
  91:.\main.c      **** /*//nunchuk//
  92:.\main.c      **** int main()
  93:.\main.c      **** {
  94:.\main.c      ****     CyGlobalIntEnable; 
  95:.\main.c      ****     UART_Start();
  96:.\main.c      ****   
  97:.\main.c      ****     nunchuk_start();
  98:.\main.c      ****     nunchuk_init();
  99:.\main.c      ****     
 100:.\main.c      ****     for(;;)
 101:.\main.c      ****     {    
 102:.\main.c      ****         nunchuk_read();
 103:.\main.c      ****     }
 104:.\main.c      **** }   
 105:.\main.c      **** //*/
 106:.\main.c      **** 
 107:.\main.c      **** 
 108:.\main.c      **** /*//IR receiver//
 109:.\main.c      **** int main()
 110:.\main.c      **** {
 111:.\main.c      ****     CyGlobalIntEnable; 
 112:.\main.c      ****     UART_Start();
 113:.\main.c      ****     
 114:.\main.c      ****     unsigned int IR_val; 
 115:.\main.c      ****     
 116:.\main.c      ****     for(;;)
 117:.\main.c      ****     {
 118:.\main.c      ****        IR_val = get_IR();
 119:.\main.c      ****        printf("%x\r\n\n",IR_val);
 120:.\main.c      ****     }    
 121:.\main.c      ****  }   
 122:.\main.c      **** //*/
 123:.\main.c      **** 
 124:.\main.c      **** 
 125:.\main.c      **** /*//Ambient light sensor//
 126:.\main.c      **** int main()
 127:.\main.c      **** {
 128:.\main.c      ****     CyGlobalIntEnable; 
 129:.\main.c      ****     UART_Start();
ARM GAS  C:\Users\dufma\AppData\Local\Temp\cc5J7mTL.s 			page 5


 130:.\main.c      ****     
 131:.\main.c      ****     I2C_Start();
 132:.\main.c      ****     
 133:.\main.c      ****     I2C_write(0x29,0x80,0x00);          // set to power down
 134:.\main.c      ****     I2C_write(0x29,0x80,0x03);          // set to power on
 135:.\main.c      ****     
 136:.\main.c      ****     for(;;)
 137:.\main.c      ****     {    
 138:.\main.c      ****         uint8 Data0Low,Data0High,Data1Low,Data1High;
 139:.\main.c      ****         Data0Low = I2C_read(0x29,CH0_L);
 140:.\main.c      ****         Data0High = I2C_read(0x29,CH0_H);
 141:.\main.c      ****         Data1Low = I2C_read(0x29,CH1_L);
 142:.\main.c      ****         Data1High = I2C_read(0x29,CH1_H);
 143:.\main.c      ****         
 144:.\main.c      ****         uint8 CH0, CH1;
 145:.\main.c      ****         CH0 = convert_raw(Data0Low,Data0High);      // combine Data0
 146:.\main.c      ****         CH1 = convert_raw(Data1Low,Data1High);      // combine Data1
 147:.\main.c      **** 
 148:.\main.c      ****         double Ch0 = CH0;
 149:.\main.c      ****         double Ch1 = CH1;
 150:.\main.c      ****         
 151:.\main.c      ****         double data = 0;
 152:.\main.c      ****         data = getLux(Ch0,Ch1);
 153:.\main.c      ****         
 154:.\main.c      ****         // If you want to print out data
 155:.\main.c      ****         //printf("%lf\r\n",data);    
 156:.\main.c      ****     }    
 157:.\main.c      ****  }   
 158:.\main.c      **** //*/
 159:.\main.c      **** 
 160:.\main.c      **** 
 161:.\main.c      **** /*//accelerometer//
 162:.\main.c      **** int main()
 163:.\main.c      **** {
 164:.\main.c      ****     CyGlobalIntEnable; 
 165:.\main.c      ****     UART_Start();
 166:.\main.c      ****   
 167:.\main.c      ****     I2C_Start();
 168:.\main.c      ****   
 169:.\main.c      ****     uint8 X_L_A, X_H_A, Y_L_A, Y_H_A, Z_L_A, Z_H_A;
 170:.\main.c      ****     int16 X_AXIS_A, Y_AXIS_A, Z_AXIS_A;
 171:.\main.c      ****     
 172:.\main.c      ****     I2C_write(ACCEL_MAG_ADDR, ACCEL_CTRL1_REG, 0x37);           // set accelerometer & magnetometer
 173:.\main.c      ****     I2C_write(ACCEL_MAG_ADDR, ACCEL_CTRL7_REG, 0x22);
 174:.\main.c      ****     
 175:.\main.c      ****     
 176:.\main.c      ****     for(;;)
 177:.\main.c      ****     {
 178:.\main.c      ****         //print out accelerometer output
 179:.\main.c      ****         X_L_A = I2C_read(ACCEL_MAG_ADDR, OUT_X_L_A);
 180:.\main.c      ****         X_H_A = I2C_read(ACCEL_MAG_ADDR, OUT_X_H_A);
 181:.\main.c      ****         X_AXIS_A = convert_raw(X_L_A, X_H_A);
 182:.\main.c      ****         
 183:.\main.c      ****         Y_L_A = I2C_read(ACCEL_MAG_ADDR, OUT_Y_L_A);
 184:.\main.c      ****         Y_H_A = I2C_read(ACCEL_MAG_ADDR, OUT_Y_H_A);
 185:.\main.c      ****         Y_AXIS_A = convert_raw(Y_L_A, Y_H_A);
 186:.\main.c      ****         
ARM GAS  C:\Users\dufma\AppData\Local\Temp\cc5J7mTL.s 			page 6


 187:.\main.c      ****         Z_L_A = I2C_read(ACCEL_MAG_ADDR, OUT_Z_L_A);
 188:.\main.c      ****         Z_H_A = I2C_read(ACCEL_MAG_ADDR, OUT_Z_H_A);
 189:.\main.c      ****         Z_AXIS_A = convert_raw(Z_L_A, Z_H_A);
 190:.\main.c      ****         
 191:.\main.c      ****         printf("ACCEL: %d %d %d %d %d %d \r\n", X_L_A, X_H_A, Y_L_A, Y_H_A, Z_L_A, Z_H_A);
 192:.\main.c      ****         value_convert_accel(X_AXIS_A, Y_AXIS_A, Z_AXIS_A);
 193:.\main.c      ****         printf("\n");
 194:.\main.c      ****         
 195:.\main.c      ****         CyDelay(50);
 196:.\main.c      ****     }
 197:.\main.c      **** }   
 198:.\main.c      **** //*/
 199:.\main.c      **** 
 200:.\main.c      **** 
 201:.\main.c      **** /*//reflectance//
 202:.\main.c      **** int main()
 203:.\main.c      **** {
 204:.\main.c      ****     CyGlobalIntEnable; 
 205:.\main.c      ****     UART_Start();
 206:.\main.c      ****   
 207:.\main.c      ****     sensor_isr_StartEx(sensor_isr_handler);
 208:.\main.c      ****     
 209:.\main.c      ****     Refelctance_Start();
 210:.\main.c      **** 
 211:.\main.c      ****     IR_led_Write(1);
 212:.\main.c      ****     for(;;)
 213:.\main.c      ****     {
 214:.\main.c      ****         reflectance_period();      //print out each period of reflectance sensors
 215:.\main.c      ****         reflectance_digital();      //print out 0 or 1 according to results of reflectance period
 216:.\main.c      ****         
 217:.\main.c      ****         CyDelay(500);
 218:.\main.c      ****     }
 219:.\main.c      **** }   
 220:.\main.c      **** */
 221:.\main.c      **** 
 222:.\main.c      ****  /* //motor//
 223:.\main.c      **** int main()
 224:.\main.c      **** {
 225:.\main.c      ****     CyGlobalIntEnable; 
 226:.\main.c      ****     UART_Start();
 227:.\main.c      **** 
 228:.\main.c      ****     motor_Start();              // motor start
 229:.\main.c      **** 
 230:.\main.c      ****     motor_forward(100,2000);     // moving forward
 231:.\main.c      ****     motor_turn(200,50,2000);     // turn
 232:.\main.c      ****     motor_turn(50,200,2000);     // turn
 233:.\main.c      ****     motor_backward(100,2000);    // movinb backward
 234:.\main.c      ****        
 235:.\main.c      ****     motor_Stop();               // motor stop
 236:.\main.c      ****     
 237:.\main.c      ****     for(;;)
 238:.\main.c      ****     {
 239:.\main.c      **** 
 240:.\main.c      ****     }
 241:.\main.c      **** }
 242:.\main.c      **** //*/
 243:.\main.c      ****     
ARM GAS  C:\Users\dufma\AppData\Local\Temp\cc5J7mTL.s 			page 7


 244:.\main.c      **** 
 245:.\main.c      **** /*//gyroscope//
 246:.\main.c      **** int main()
 247:.\main.c      **** {
 248:.\main.c      ****     CyGlobalIntEnable; 
 249:.\main.c      ****     UART_Start();
 250:.\main.c      ****   
 251:.\main.c      ****     I2C_Start();
 252:.\main.c      ****   
 253:.\main.c      ****     uint8 X_L_G, X_H_G, Y_L_G, Y_H_G, Z_L_G, Z_H_G;
 254:.\main.c      ****     int16 X_AXIS_G, Y_AXIS_G, Z_AXIS_G;
 255:.\main.c      ****     
 256:.\main.c      ****     I2C_write(GYRO_ADDR, GYRO_CTRL1_REG, 0x0F);             // set gyroscope into active mode
 257:.\main.c      ****     I2C_write(GYRO_ADDR, GYRO_CTRL4_REG, 0x30);             // set full scale selection to 2000dps 
 258:.\main.c      ****     
 259:.\main.c      ****     for(;;)
 260:.\main.c      ****     {
 261:.\main.c      ****         //print out gyroscope output
 262:.\main.c      ****         X_L_G = I2C_read(GYRO_ADDR, OUT_X_AXIS_L);
 263:.\main.c      ****         X_H_G = I2C_read(GYRO_ADDR, OUT_X_AXIS_H);
 264:.\main.c      ****         X_AXIS_G = convert_raw(X_H_G, X_L_G);
 265:.\main.c      ****         
 266:.\main.c      ****         
 267:.\main.c      ****         Y_L_G = I2C_read(GYRO_ADDR, OUT_Y_AXIS_L);
 268:.\main.c      ****         Y_H_G = I2C_read(GYRO_ADDR, OUT_Y_AXIS_H);
 269:.\main.c      ****         Y_AXIS_G = convert_raw(Y_H_G, Y_L_G);
 270:.\main.c      ****         
 271:.\main.c      ****         
 272:.\main.c      ****         Z_L_G = I2C_read(GYRO_ADDR, OUT_Z_AXIS_L);
 273:.\main.c      ****         Z_H_G = I2C_read(GYRO_ADDR, OUT_Z_AXIS_H);
 274:.\main.c      ****         Z_AXIS_G = convert_raw(Z_H_G, Z_L_G);
 275:.\main.c      ****      
 276:.\main.c      ****         // If you want to print value
 277:.\main.c      ****         printf("%d %d %d \r\n", X_AXIS_G, Y_AXIS_G, Z_AXIS_G);
 278:.\main.c      ****         CyDelay(50);
 279:.\main.c      ****     }
 280:.\main.c      **** }   
 281:.\main.c      **** //*/
 282:.\main.c      **** 
 283:.\main.c      **** 
 284:.\main.c      **** /*//magnetometer//
 285:.\main.c      **** int main()
 286:.\main.c      **** {
 287:.\main.c      ****     CyGlobalIntEnable; 
 288:.\main.c      ****     UART_Start();
 289:.\main.c      ****   
 290:.\main.c      ****     I2C_Start();
 291:.\main.c      ****    
 292:.\main.c      ****     uint8 X_L_M, X_H_M, Y_L_M, Y_H_M, Z_L_M, Z_H_M;
 293:.\main.c      ****     int16 X_AXIS, Y_AXIS, Z_AXIS;
 294:.\main.c      ****     
 295:.\main.c      ****     I2C_write(GYRO_ADDR, GYRO_CTRL1_REG, 0x0F);             // set gyroscope into active mode
 296:.\main.c      ****     I2C_write(GYRO_ADDR, GYRO_CTRL4_REG, 0x30);             // set full scale selection to 2000dps
 297:.\main.c      ****     I2C_write(ACCEL_MAG_ADDR, ACCEL_CTRL1_REG, 0x37);           // set accelerometer & magnetometer
 298:.\main.c      ****     I2C_write(ACCEL_MAG_ADDR, ACCEL_CTRL7_REG, 0x22);
 299:.\main.c      ****     
 300:.\main.c      ****     
ARM GAS  C:\Users\dufma\AppData\Local\Temp\cc5J7mTL.s 			page 8


 301:.\main.c      ****     for(;;)
 302:.\main.c      ****     {
 303:.\main.c      ****         X_L_M = I2C_read(ACCEL_MAG_ADDR, OUT_X_L_M);
 304:.\main.c      ****         X_H_M = I2C_read(ACCEL_MAG_ADDR, OUT_X_H_M);
 305:.\main.c      ****         X_AXIS = convert_raw(X_L_M, X_H_M);
 306:.\main.c      ****         
 307:.\main.c      ****         Y_L_M = I2C_read(ACCEL_MAG_ADDR, OUT_Y_L_M);
 308:.\main.c      ****         Y_H_M = I2C_read(ACCEL_MAG_ADDR, OUT_Y_H_M);
 309:.\main.c      ****         Y_AXIS = convert_raw(Y_L_M, Y_H_M);
 310:.\main.c      ****         
 311:.\main.c      ****         Z_L_M = I2C_read(ACCEL_MAG_ADDR, OUT_Z_L_M);
 312:.\main.c      ****         Z_H_M = I2C_read(ACCEL_MAG_ADDR, OUT_Z_H_M);
 313:.\main.c      ****         Z_AXIS = convert_raw(Z_L_M, Z_H_M);
 314:.\main.c      ****         
 315:.\main.c      ****         heading(X_AXIS, Y_AXIS);
 316:.\main.c      ****         printf("MAGNET: %d %d %d %d %d %d \r\n", X_L_M, X_H_M, Y_L_M, Y_H_M, Z_L_M, Z_H_M);
 317:.\main.c      ****         printf("%d %d %d \r\n", X_AXIS,Y_AXIS, Z_AXIS);
 318:.\main.c      ****         CyDelay(50);      
 319:.\main.c      ****     }
 320:.\main.c      **** }   
 321:.\main.c      **** //*/
 322:.\main.c      **** 
 323:.\main.c      **** 
 324:.\main.c      **** #if 0
 325:.\main.c      **** int rread(void)
 326:.\main.c      **** {
 327:.\main.c      ****     SC0_SetDriveMode(PIN_DM_STRONG);
 328:.\main.c      ****     SC0_Write(1);
 329:.\main.c      ****     CyDelayUs(10);
 330:.\main.c      ****     SC0_SetDriveMode(PIN_DM_DIG_HIZ);
 331:.\main.c      ****     Timer_1_Start();
 332:.\main.c      ****     uint16_t start = Timer_1_ReadCounter();
 333:.\main.c      ****     uint16_t end = 0;
 334:.\main.c      ****     while(!(Timer_1_ReadStatusRegister() & Timer_1_STATUS_TC)) {
 335:.\main.c      ****         if(SC0_Read() == 0 && end == 0) {
 336:.\main.c      ****             end = Timer_1_ReadCounter();
 337:.\main.c      ****         }
 338:.\main.c      ****     }
 339:.\main.c      ****     Timer_1_Stop();
 340:.\main.c      ****     
 341:.\main.c      ****     return (start - end);
 342:.\main.c      **** }
 343:.\main.c      **** #endif
 344:.\main.c      **** 
 345:.\main.c      **** int _write(int file, char *ptr, int len)
 346:.\main.c      **** {
  99              		.loc 1 346 0
 100              		.cfi_startproc
 101              		@ args = 0, pretend = 0, frame = 0
 102              		@ frame_needed = 0, uses_anonymous_args = 0
 103              	.LVL10:
 104 0000 70B5     		push	{r4, r5, r6, lr}
 105              		.cfi_def_cfa_offset 16
 106              		.cfi_offset 4, -16
 107              		.cfi_offset 5, -12
 108              		.cfi_offset 6, -8
 109              		.cfi_offset 14, -4
ARM GAS  C:\Users\dufma\AppData\Local\Temp\cc5J7mTL.s 			page 9


 110 0002 1646     		mov	r6, r2
 111              	.LVL11:
 347:.\main.c      ****     (void) file;
 348:.\main.c      **** 	int n;
 349:.\main.c      **** 	for(n = 0; n < len; n++) {
 112              		.loc 1 349 0
 113 0004 0024     		movs	r4, #0
 114 0006 05E0     		b	.L9
 115              	.LVL12:
 116              	.L10:
 350:.\main.c      **** 		UART_PutChar(*ptr++);
 117              		.loc 1 350 0 discriminator 3
 118 0008 4D1C     		adds	r5, r1, #1
 119              	.LVL13:
 120 000a 0878     		ldrb	r0, [r1]	@ zero_extendqisi2
 121 000c FFF7FEFF 		bl	UART_PutChar
 122              	.LVL14:
 349:.\main.c      **** 		UART_PutChar(*ptr++);
 123              		.loc 1 349 0 discriminator 3
 124 0010 0134     		adds	r4, r4, #1
 125              	.LVL15:
 126              		.loc 1 350 0 discriminator 3
 127 0012 2946     		mov	r1, r5
 128              	.LVL16:
 129              	.L9:
 349:.\main.c      **** 		UART_PutChar(*ptr++);
 130              		.loc 1 349 0 discriminator 1
 131 0014 B442     		cmp	r4, r6
 132 0016 F7DB     		blt	.L10
 351:.\main.c      **** 	}
 352:.\main.c      **** 	return len;
 353:.\main.c      **** }
 133              		.loc 1 353 0
 134 0018 3046     		mov	r0, r6
 135 001a 70BD     		pop	{r4, r5, r6, pc}
 136              		.cfi_endproc
 137              	.LFE64:
 138              		.size	_write, .-_write
 139              		.comm	digital_sensor_value,8,4
 140              		.comm	sensors,8,4
 141              		.section	.rodata.str1.4,"aMS",%progbits,1
 142              		.align	2
 143              	.LC0:
 144 0000 25642025 		.ascii	"%d %f\015\012\000"
 144      660D0A00 
 145              		.text
 146              	.Letext0:
 147              		.file 2 "c:\\program files (x86)\\cypress\\psoc creator\\3.3\\psoc creator\\import\\gnu\\arm\\4.9.
 148              		.file 3 "c:\\program files (x86)\\cypress\\psoc creator\\3.3\\psoc creator\\import\\gnu\\arm\\4.9.
 149              		.file 4 "Generated_Source\\PSoC5/cytypes.h"
 150              		.file 5 ".\\Reflectance.h"
 151              		.file 6 "Generated_Source\\PSoC5/core_cm3.h"
 152              		.file 7 "Generated_Source\\PSoC5/ADC_Battery.h"
 153              		.file 8 "c:\\program files (x86)\\cypress\\psoc creator\\3.3\\psoc creator\\import\\gnu\\arm\\4.9.
 154              		.file 9 "Generated_Source\\PSoC5/UART.h"