ARM GAS  C:\Users\dufma\AppData\Local\Temp\ccZlcDR4.s 			page 1


   1              		.syntax unified
   2              		.cpu cortex-m3
   3              		.fpu softvfp
   4              		.eabi_attribute 20, 1
   5              		.eabi_attribute 21, 1
   6              		.eabi_attribute 23, 3
   7              		.eabi_attribute 24, 1
   8              		.eabi_attribute 25, 1
   9              		.eabi_attribute 26, 1
  10              		.eabi_attribute 30, 1
  11              		.eabi_attribute 34, 1
  12              		.eabi_attribute 18, 4
  13              		.thumb
  14              		.file	"Nunchuk.c"
  15              		.text
  16              	.Ltext0:
  17              		.cfi_sections	.debug_frame
  18              		.section	.text.nunchuk_start,"ax",%progbits
  19              		.align	2
  20              		.global	nunchuk_start
  21              		.thumb
  22              		.thumb_func
  23              		.type	nunchuk_start, %function
  24              	nunchuk_start:
  25              	.LFB63:
  26              		.file 1 ".\\Nunchuk.c"
   1:.\Nunchuk.c   **** /**
   2:.\Nunchuk.c   ****  * @file    Nunchuk.c
   3:.\Nunchuk.c   ****  * @brief   Nunchuk method file
   4:.\Nunchuk.c   ****  * @details 
   5:.\Nunchuk.c   **** */
   6:.\Nunchuk.c   **** #include "nunchuk.h"
   7:.\Nunchuk.c   **** 
   8:.\Nunchuk.c   **** 
   9:.\Nunchuk.c   **** /**
  10:.\Nunchuk.c   **** * @brief    Start Nunchuk
  11:.\Nunchuk.c   **** * @details
  12:.\Nunchuk.c   **** */
  13:.\Nunchuk.c   **** void nunchuk_start()
  14:.\Nunchuk.c   **** {
  27              		.loc 1 14 0
  28              		.cfi_startproc
  29              		@ args = 0, pretend = 0, frame = 0
  30              		@ frame_needed = 0, uses_anonymous_args = 0
  31 0000 08B5     		push	{r3, lr}
  32              		.cfi_def_cfa_offset 8
  33              		.cfi_offset 3, -8
  34              		.cfi_offset 14, -4
  15:.\Nunchuk.c   ****     I2C_Start();
  35              		.loc 1 15 0
  36 0002 FFF7FEFF 		bl	I2C_Start
  37              	.LVL0:
  38 0006 08BD     		pop	{r3, pc}
  39              		.cfi_endproc
  40              	.LFE63:
  41              		.size	nunchuk_start, .-nunchuk_start
  42              		.section	.text.nunchuk_init,"ax",%progbits
ARM GAS  C:\Users\dufma\AppData\Local\Temp\ccZlcDR4.s 			page 2


  43              		.align	2
  44              		.global	nunchuk_init
  45              		.thumb
  46              		.thumb_func
  47              		.type	nunchuk_init, %function
  48              	nunchuk_init:
  49              	.LFB64:
  16:.\Nunchuk.c   **** }
  17:.\Nunchuk.c   **** 
  18:.\Nunchuk.c   **** /**
  19:.\Nunchuk.c   **** * @brief    Initializing Nunchuk
  20:.\Nunchuk.c   **** * @details  write value(0x00) to register(address - 0x40) to initialize nunchuk
  21:.\Nunchuk.c   **** */
  22:.\Nunchuk.c   **** void nunchuk_init()
  23:.\Nunchuk.c   **** {
  50              		.loc 1 23 0
  51              		.cfi_startproc
  52              		@ args = 0, pretend = 0, frame = 8
  53              		@ frame_needed = 0, uses_anonymous_args = 0
  54 0000 10B5     		push	{r4, lr}
  55              		.cfi_def_cfa_offset 8
  56              		.cfi_offset 4, -8
  57              		.cfi_offset 14, -4
  58 0002 82B0     		sub	sp, sp, #8
  59              		.cfi_def_cfa_offset 16
  24:.\Nunchuk.c   ****     uint8_t buf[2] = { 0x40, 0x00 };
  60              		.loc 1 24 0
  61 0004 4023     		movs	r3, #64
  62 0006 8DF80430 		strb	r3, [sp, #4]
  63 000a 0024     		movs	r4, #0
  64 000c 8DF80540 		strb	r4, [sp, #5]
  25:.\Nunchuk.c   ****     uint8_t status;
  26:.\Nunchuk.c   ****     I2C_MasterClearStatus();
  65              		.loc 1 26 0
  66 0010 FFF7FEFF 		bl	I2C_MasterClearStatus
  67              	.LVL1:
  27:.\Nunchuk.c   ****     CyDelay(100);
  68              		.loc 1 27 0
  69 0014 6420     		movs	r0, #100
  70 0016 FFF7FEFF 		bl	CyDelay
  71              	.LVL2:
  28:.\Nunchuk.c   ****     status = I2C_MasterWriteBuf(0x52, buf, 2, I2C_MODE_COMPLETE_XFER);
  72              		.loc 1 28 0
  73 001a 5220     		movs	r0, #82
  74 001c 01A9     		add	r1, sp, #4
  75 001e 0222     		movs	r2, #2
  76 0020 2346     		mov	r3, r4
  77 0022 FFF7FEFF 		bl	I2C_MasterWriteBuf
  78              	.LVL3:
  79              	.L4:
  29:.\Nunchuk.c   ****     while(((status = I2C_MasterStatus()) & I2C_MSTAT_WR_CMPLT) == 0);
  80              		.loc 1 29 0 discriminator 1
  81 0026 FFF7FEFF 		bl	I2C_MasterStatus
  82              	.LVL4:
  83 002a 10F0020F 		tst	r0, #2
  84 002e FAD0     		beq	.L4
  30:.\Nunchuk.c   ****     CyDelay(100);
ARM GAS  C:\Users\dufma\AppData\Local\Temp\ccZlcDR4.s 			page 3


  85              		.loc 1 30 0
  86 0030 6420     		movs	r0, #100
  87              	.LVL5:
  88 0032 FFF7FEFF 		bl	CyDelay
  89              	.LVL6:
  31:.\Nunchuk.c   **** }    
  90              		.loc 1 31 0
  91 0036 02B0     		add	sp, sp, #8
  92              		.cfi_def_cfa_offset 8
  93              		@ sp needed
  94 0038 10BD     		pop	{r4, pc}
  95              		.cfi_endproc
  96              	.LFE64:
  97              		.size	nunchuk_init, .-nunchuk_init
  98 003a 00BF     		.section	.text.nunchuk_read,"ax",%progbits
  99              		.align	2
 100              		.global	nunchuk_read
 101              		.thumb
 102              		.thumb_func
 103              		.type	nunchuk_read, %function
 104              	nunchuk_read:
 105              	.LFB65:
  32:.\Nunchuk.c   **** 
  33:.\Nunchuk.c   **** /**
  34:.\Nunchuk.c   **** * @brief Read Nunchuk value
  35:.\Nunchuk.c   **** * @details read nunchuk value and get Joystick values and accelerometer values
  36:.\Nunchuk.c   **** */
  37:.\Nunchuk.c   **** void nunchuk_read()
  38:.\Nunchuk.c   **** {
 106              		.loc 1 38 0
 107              		.cfi_startproc
 108              		@ args = 0, pretend = 0, frame = 8
 109              		@ frame_needed = 0, uses_anonymous_args = 0
 110 0000 70B5     		push	{r4, r5, r6, lr}
 111              		.cfi_def_cfa_offset 16
 112              		.cfi_offset 4, -16
 113              		.cfi_offset 5, -12
 114              		.cfi_offset 6, -8
 115              		.cfi_offset 14, -4
 116 0002 86B0     		sub	sp, sp, #24
 117              		.cfi_def_cfa_offset 40
  39:.\Nunchuk.c   ****     uint8_t status;
  40:.\Nunchuk.c   ****     uint8_t buf[6];
  41:.\Nunchuk.c   ****     // send conversion command
  42:.\Nunchuk.c   ****     buf[0] = 0x00;
 118              		.loc 1 42 0
 119 0004 0025     		movs	r5, #0
 120 0006 06AC     		add	r4, sp, #24
 121 0008 04F8085D 		strb	r5, [r4, #-8]!
  43:.\Nunchuk.c   ****     I2C_MasterClearStatus();
 122              		.loc 1 43 0
 123 000c FFF7FEFF 		bl	I2C_MasterClearStatus
 124              	.LVL7:
  44:.\Nunchuk.c   ****     status = I2C_MasterWriteBuf(0x52, buf, 1, I2C_MODE_COMPLETE_XFER);
 125              		.loc 1 44 0
 126 0010 5220     		movs	r0, #82
 127 0012 2146     		mov	r1, r4
ARM GAS  C:\Users\dufma\AppData\Local\Temp\ccZlcDR4.s 			page 4


 128 0014 0122     		movs	r2, #1
 129 0016 2B46     		mov	r3, r5
 130 0018 FFF7FEFF 		bl	I2C_MasterWriteBuf
 131              	.LVL8:
 132              	.L7:
  45:.\Nunchuk.c   ****     while(((status = I2C_MasterStatus()) & I2C_MSTAT_WR_CMPLT) == 0);
 133              		.loc 1 45 0 discriminator 1
 134 001c FFF7FEFF 		bl	I2C_MasterStatus
 135              	.LVL9:
 136 0020 10F0020F 		tst	r0, #2
 137 0024 FAD0     		beq	.L7
  46:.\Nunchuk.c   ****     // wait for conversion to complete
  47:.\Nunchuk.c   ****     CyDelay(50); // todo: check if shorter wait would work
 138              		.loc 1 47 0
 139 0026 3220     		movs	r0, #50
 140              	.LVL10:
 141 0028 FFF7FEFF 		bl	CyDelay
 142              	.LVL11:
  48:.\Nunchuk.c   ****     // read values
  49:.\Nunchuk.c   ****     I2C_MasterClearStatus();
 143              		.loc 1 49 0
 144 002c FFF7FEFF 		bl	I2C_MasterClearStatus
 145              	.LVL12:
  50:.\Nunchuk.c   ****     status = I2C_MasterReadBuf(0x52, buf, 6, I2C_MODE_COMPLETE_XFER);
 146              		.loc 1 50 0
 147 0030 5220     		movs	r0, #82
 148 0032 04A9     		add	r1, sp, #16
 149 0034 0622     		movs	r2, #6
 150 0036 0023     		movs	r3, #0
 151 0038 FFF7FEFF 		bl	I2C_MasterReadBuf
 152              	.LVL13:
 153              	.L8:
  51:.\Nunchuk.c   ****     while(((status = I2C_MasterStatus()) & I2C_MSTAT_RD_CMPLT) == 0);
 154              		.loc 1 51 0 discriminator 1
 155 003c FFF7FEFF 		bl	I2C_MasterStatus
 156              	.LVL14:
 157 0040 10F0010F 		tst	r0, #1
 158 0044 FAD0     		beq	.L8
 159 0046 0022     		movs	r2, #0
 160 0048 09E0     		b	.L9
 161              	.LVL15:
 162              	.L10:
  52:.\Nunchuk.c   ****     
  53:.\Nunchuk.c   ****     int i;
  54:.\Nunchuk.c   ****     // decrypt data
  55:.\Nunchuk.c   ****     for(i = 0; i < 6; i++) buf[i] = (buf[i] ^ 0x17) + 0x17;
 163              		.loc 1 55 0 discriminator 3
 164 004a 06AB     		add	r3, sp, #24
 165 004c 9918     		adds	r1, r3, r2
 166 004e 11F8083C 		ldrb	r3, [r1, #-8]	@ zero_extendqisi2
 167 0052 83F01703 		eor	r3, r3, #23
 168 0056 1733     		adds	r3, r3, #23
 169 0058 01F8083C 		strb	r3, [r1, #-8]
 170 005c 0132     		adds	r2, r2, #1
 171              	.LVL16:
 172              	.L9:
 173              		.loc 1 55 0 is_stmt 0 discriminator 1
ARM GAS  C:\Users\dufma\AppData\Local\Temp\ccZlcDR4.s 			page 5


 174 005e 052A     		cmp	r2, #5
 175 0060 F3DD     		ble	.L10
  56:.\Nunchuk.c   ****     // accelerometer values
  57:.\Nunchuk.c   ****     int x,y,z;
  58:.\Nunchuk.c   ****     x = (buf[2] << 2) | ((buf[5] >> 2) & 0x03);
 176              		.loc 1 58 0 is_stmt 1
 177 0062 9DF81250 		ldrb	r5, [sp, #18]	@ zero_extendqisi2
 178 0066 9DF81530 		ldrb	r3, [sp, #21]	@ zero_extendqisi2
 179 006a C3F38102 		ubfx	r2, r3, #2, #2
 180              	.LVL17:
 181 006e 42EA8505 		orr	r5, r2, r5, lsl #2
 182              	.LVL18:
  59:.\Nunchuk.c   ****     y = (buf[3] << 2) | ((buf[5] >> 4) & 0x03);
 183              		.loc 1 59 0
 184 0072 9DF81340 		ldrb	r4, [sp, #19]	@ zero_extendqisi2
 185 0076 C3F30112 		ubfx	r2, r3, #4, #2
 186 007a 42EA8404 		orr	r4, r2, r4, lsl #2
 187              	.LVL19:
  60:.\Nunchuk.c   ****     z = (buf[4] << 2) | ((buf[5] >> 6) & 0x03);
 188              		.loc 1 60 0
 189 007e 9DF81400 		ldrb	r0, [sp, #20]	@ zero_extendqisi2
 190              	.LVL20:
 191 0082 9A09     		lsrs	r2, r3, #6
 192 0084 42EA8000 		orr	r0, r2, r0, lsl #2
 193              	.LVL21:
  61:.\Nunchuk.c   ****     // buf[0] = JoyX, buf[1] = JoyY
  62:.\Nunchuk.c   ****     printf("%3d %3d, %d, %d, %4d %4d %4d\r\n", buf[0], buf[1], (buf[5] >> 1) & 1, buf[5] & 1, x, y,
 194              		.loc 1 62 0
 195 0088 9DF81010 		ldrb	r1, [sp, #16]	@ zero_extendqisi2
 196 008c 9DF81120 		ldrb	r2, [sp, #17]	@ zero_extendqisi2
 197 0090 03F00106 		and	r6, r3, #1
 198 0094 0096     		str	r6, [sp]
 199 0096 0195     		str	r5, [sp, #4]
 200 0098 0294     		str	r4, [sp, #8]
 201 009a 0390     		str	r0, [sp, #12]
 202 009c 0348     		ldr	r0, .L12
 203              	.LVL22:
 204 009e C3F34003 		ubfx	r3, r3, #1, #1
 205 00a2 FFF7FEFF 		bl	printf
 206              	.LVL23:
  63:.\Nunchuk.c   **** }    
 207              		.loc 1 63 0
 208 00a6 06B0     		add	sp, sp, #24
 209              		.cfi_def_cfa_offset 16
 210              		@ sp needed
 211 00a8 70BD     		pop	{r4, r5, r6, pc}
 212              	.LVL24:
 213              	.L13:
 214 00aa 00BF     		.align	2
 215              	.L12:
 216 00ac 00000000 		.word	.LC0
 217              		.cfi_endproc
 218              	.LFE65:
 219              		.size	nunchuk_read, .-nunchuk_read
 220              		.section	.rodata.str1.4,"aMS",%progbits,1
 221              		.align	2
 222              	.LC0:
ARM GAS  C:\Users\dufma\AppData\Local\Temp\ccZlcDR4.s 			page 6


 223 0000 25336420 		.ascii	"%3d %3d, %d, %d, %4d %4d %4d\015\012\000"
 223      2533642C 
 223      2025642C 
 223      2025642C 
 223      20253464 
 224 001f 00       		.text
 225              	.Letext0:
 226              		.file 2 "c:\\program files (x86)\\cypress\\psoc creator\\3.3\\psoc creator\\import\\gnu\\arm\\4.9.
 227              		.file 3 "c:\\program files (x86)\\cypress\\psoc creator\\3.3\\psoc creator\\import\\gnu\\arm\\4.9.
 228              		.file 4 "Generated_Source\\PSoC5/cytypes.h"
 229              		.file 5 "Generated_Source\\PSoC5/I2C.h"
 230              		.file 6 "Generated_Source\\PSoC5/CyLib.h"
 231              		.file 7 "c:\\program files (x86)\\cypress\\psoc creator\\3.3\\psoc creator\\import\\gnu\\arm\\4.9.
 232              		.file 8 "Generated_Source\\PSoC5/core_cm3.h"