ARM GAS  C:\Users\dufma\AppData\Local\Temp\ccYkmTZU.s 			page 1


   1              		.syntax unified
   2              		.cpu cortex-m3
   3              		.fpu softvfp
   4              		.eabi_attribute 20, 1
   5              		.eabi_attribute 21, 1
   6              		.eabi_attribute 23, 3
   7              		.eabi_attribute 24, 1
   8              		.eabi_attribute 25, 1
   9              		.eabi_attribute 26, 1
  10              		.eabi_attribute 30, 1
  11              		.eabi_attribute 34, 1
  12              		.eabi_attribute 18, 4
  13              		.thumb
  14              		.file	"main.c"
  15              		.text
  16              	.Ltext0:
  17              		.cfi_sections	.debug_frame
  18              		.global	__aeabi_ui2f
  19              		.global	__aeabi_fmul
  20              		.global	__aeabi_ui2d
  21              		.global	__aeabi_dadd
  22              		.global	__aeabi_d2f
  23              		.global	__aeabi_f2d
  24              		.global	__aeabi_ddiv
  25              		.global	__aeabi_dmul
  26              		.section	.text.value_convert_accel,"ax",%progbits
  27              		.align	2
  28              		.global	value_convert_accel
  29              		.thumb
  30              		.thumb_func
  31              		.type	value_convert_accel, %function
  32              	value_convert_accel:
  33              	.LFB63:
  34              		.file 1 ".\\main.c"
   1:.\main.c      **** /**
   2:.\main.c      **** * @mainpage ZumoBot Project
   3:.\main.c      **** * @breif    You can make your own ZumoBot with various sensors.
   4:.\main.c      **** * @details  <br>
   5:.\main.c      ****     <p>
   6:.\main.c      ****     <B>General</B><br>
   7:.\main.c      ****     You will use Pololu Zumo Shields for your robot project with CY8CKIT-059(PSoC 5LP) from Cypress
   8:.\main.c      ****     library has basic methods of various sensors and communications so that you can make what you w
   9:.\main.c      ****     <br><br><br>
  10:.\main.c      ****     </p>
  11:.\main.c      ****     
  12:.\main.c      ****     <p>
  13:.\main.c      ****     <B>Sensors</B><br>
  14:.\main.c      ****     &nbsp;Included: <br>
  15:.\main.c      ****         &nbsp;&nbsp;&nbsp;&nbsp;LSM303D: Accelerometer & Magnetometer<br>
  16:.\main.c      ****         &nbsp;&nbsp;&nbsp;&nbsp;L3GD20H: Gyroscope<br>
  17:.\main.c      ****         &nbsp;&nbsp;&nbsp;&nbsp;Reflectance sensor<br>
  18:.\main.c      ****         &nbsp;&nbsp;&nbsp;&nbsp;Motors
  19:.\main.c      ****     &nbsp;Wii nunchuck<br>
  20:.\main.c      ****     &nbsp;TSOP-2236: IR Receiver<br>
  21:.\main.c      ****     &nbsp;HC-SR04: Ultrasonic sensor<br>
  22:.\main.c      ****     &nbsp;APDS-9301: Ambient light sensor<br>
  23:.\main.c      ****     &nbsp;IR LED <br><br><br>
ARM GAS  C:\Users\dufma\AppData\Local\Temp\ccYkmTZU.s 			page 2


  24:.\main.c      ****     </p>
  25:.\main.c      ****     
  26:.\main.c      ****     <p>
  27:.\main.c      ****     <B>Communication</B><br>
  28:.\main.c      ****     I2C, UART, Serial<br>
  29:.\main.c      ****     </p>
  30:.\main.c      **** */
  31:.\main.c      **** 
  32:.\main.c      **** #include <project.h>
  33:.\main.c      **** #include <stdio.h>
  34:.\main.c      **** #include "Motor.h"
  35:.\main.c      **** #include "Ultra.h"
  36:.\main.c      **** #include "Nunchuk.h"
  37:.\main.c      **** #include "Reflectance.h"
  38:.\main.c      **** #include "I2C_made.h"
  39:.\main.c      **** #include "Gyro.h"
  40:.\main.c      **** #include "Accel_magnet.h"
  41:.\main.c      **** #include "IR.h"
  42:.\main.c      **** #include "Ambient.h"
  43:.\main.c      **** 
  44:.\main.c      **** int rread(void);
  45:.\main.c      **** 
  46:.\main.c      **** 
  47:.\main.c      **** /*int main()
  48:.\main.c      **** {
  49:.\main.c      ****     
  50:.\main.c      **** }*/
  51:.\main.c      **** 
  52:.\main.c      **** 
  53:.\main.c      **** /*//ultra sonic sensor//
  54:.\main.c      **** int main()
  55:.\main.c      **** {
  56:.\main.c      ****     CyGlobalIntEnable; 
  57:.\main.c      ****     UART_Start();
  58:.\main.c      ****     Ultra_Start();                          // Ultra Sonic Start function
  59:.\main.c      ****  }   
  60:.\main.c      **** //*/
  61:.\main.c      **** 
  62:.\main.c      **** /*//nunchuk//
  63:.\main.c      **** int main()
  64:.\main.c      **** {
  65:.\main.c      ****     CyGlobalIntEnable; 
  66:.\main.c      ****     UART_Start();
  67:.\main.c      ****   
  68:.\main.c      ****     nunchuk_start();
  69:.\main.c      ****     nunchuk_init();
  70:.\main.c      ****     
  71:.\main.c      ****     for(;;)
  72:.\main.c      ****     {    
  73:.\main.c      ****         nunchuk_read();
  74:.\main.c      ****     }
  75:.\main.c      **** }   
  76:.\main.c      **** //*/
  77:.\main.c      **** 
  78:.\main.c      **** /*//IR receiver//
  79:.\main.c      **** int main()
  80:.\main.c      **** {
ARM GAS  C:\Users\dufma\AppData\Local\Temp\ccYkmTZU.s 			page 3


  81:.\main.c      ****     CyGlobalIntEnable; 
  82:.\main.c      ****     UART_Start();
  83:.\main.c      ****     
  84:.\main.c      ****     unsigned int IR_val; 
  85:.\main.c      ****     
  86:.\main.c      ****     for(;;)
  87:.\main.c      ****     {
  88:.\main.c      ****        IR_val = get_IR();
  89:.\main.c      ****        printf("%x\r\n\n",IR_val);
  90:.\main.c      ****     }    
  91:.\main.c      ****  }   
  92:.\main.c      **** //*/
  93:.\main.c      **** 
  94:.\main.c      **** /*//Ambient light sensor//
  95:.\main.c      **** int main()
  96:.\main.c      **** {
  97:.\main.c      ****     CyGlobalIntEnable; 
  98:.\main.c      ****     UART_Start();
  99:.\main.c      ****     
 100:.\main.c      ****     I2C_Start();
 101:.\main.c      ****     
 102:.\main.c      ****     uint16 value =0;
 103:.\main.c      ****     
 104:.\main.c      ****     I2C_write(0x29,0x80,0x00);
 105:.\main.c      ****     
 106:.\main.c      ****     value = I2C_read(0x29,0x80);
 107:.\main.c      ****     printf("%x ",value);
 108:.\main.c      ****     
 109:.\main.c      ****     I2C_write(0x29,0x80,0x03);
 110:.\main.c      ****     value = I2C_read(0x29,0x80);
 111:.\main.c      ****     printf("%x\r\n",value);
 112:.\main.c      ****         
 113:.\main.c      ****     value = I2C_read(0x29,0x81);
 114:.\main.c      ****     printf("%x\r\n",value);
 115:.\main.c      ****     for(;;)
 116:.\main.c      ****     {
 117:.\main.c      ****         
 118:.\main.c      ****         uint8 Data0Low,Data0High,Data1Low,Data1High;
 119:.\main.c      ****         Data0Low = I2C_read(0x29,CH0_L);
 120:.\main.c      ****         Data0High = I2C_read(0x29,CH0_H);
 121:.\main.c      ****         Data1Low = I2C_read(0x29,CH1_L);
 122:.\main.c      ****         Data1High = I2C_read(0x29,CH1_H);
 123:.\main.c      ****         
 124:.\main.c      ****         uint8 CH0, CH1;
 125:.\main.c      ****         CH0 = convert_raw(Data0Low,Data0High);
 126:.\main.c      ****         CH1 = convert_raw(Data1Low,Data1High);
 127:.\main.c      **** 
 128:.\main.c      ****    //     printf("%d %d %d %d\r\n",Data0Low,Data0High, Data1Low,Data1High);
 129:.\main.c      ****    //     printf("%d %d\r\n",CH0,CH1);
 130:.\main.c      ****    //        printf("%f\r\n",(float)CH1/CH0);
 131:.\main.c      ****         
 132:.\main.c      ****    
 133:.\main.c      ****         double Ch0 = CH0;
 134:.\main.c      ****         double Ch1 = CH1;
 135:.\main.c      ****         
 136:.\main.c      ****         double data = 0;
 137:.\main.c      ****         data = getLux(Ch0,Ch1);
ARM GAS  C:\Users\dufma\AppData\Local\Temp\ccYkmTZU.s 			page 4


 138:.\main.c      ****         printf("%lf\r\n",data);    
 139:.\main.c      ****     }    
 140:.\main.c      ****  }   
 141:.\main.c      **** */
 142:.\main.c      **** 
 143:.\main.c      **** void value_convert_accel(uint16 X_AXIS, uint16 Y_AXIS, uint16 Z_AXIS, uint16 X_raw, uint16 Y_raw)
 144:.\main.c      **** {
  35              		.loc 1 144 0
  36              		.cfi_startproc
  37              		@ args = 4, pretend = 0, frame = 0
  38              		@ frame_needed = 0, uses_anonymous_args = 0
  39              	.LVL0:
  40 0000 2DE9F04F 		push	{r4, r5, r6, r7, r8, r9, r10, fp, lr}
  41              		.cfi_def_cfa_offset 36
  42              		.cfi_offset 4, -36
  43              		.cfi_offset 5, -32
  44              		.cfi_offset 6, -28
  45              		.cfi_offset 7, -24
  46              		.cfi_offset 8, -20
  47              		.cfi_offset 9, -16
  48              		.cfi_offset 10, -12
  49              		.cfi_offset 11, -8
  50              		.cfi_offset 14, -4
  51 0004 83B0     		sub	sp, sp, #12
  52              		.cfi_def_cfa_offset 48
  53 0006 8046     		mov	r8, r0
  54 0008 0E46     		mov	r6, r1
  55 000a 1446     		mov	r4, r2
  56              	.LVL1:
 145:.\main.c      ****     double AccXangle, AccYangle,CFangleX, CFangleY;
 146:.\main.c      ****     float x_rate,y_rate;
 147:.\main.c      ****     float G_GAIN = 0.07;
 148:.\main.c      ****     float DT = 0.02;
 149:.\main.c      ****    
 150:.\main.c      ****     x_rate = (float)X_raw * G_GAIN *DT;
  57              		.loc 1 150 0
  58 000c 1846     		mov	r0, r3
  59              	.LVL2:
  60 000e FFF7FEFF 		bl	__aeabi_ui2f
  61              	.LVL3:
  62 0012 4D49     		ldr	r1, .L3+24
  63 0014 FFF7FEFF 		bl	__aeabi_fmul
  64              	.LVL4:
  65 0018 4C49     		ldr	r1, .L3+28
  66 001a FFF7FEFF 		bl	__aeabi_fmul
  67              	.LVL5:
  68 001e 8346     		mov	fp, r0
  69              	.LVL6:
 151:.\main.c      ****     y_rate = (float)Y_raw * G_GAIN *DT;
  70              		.loc 1 151 0
  71 0020 BDF83000 		ldrh	r0, [sp, #48]
  72              	.LVL7:
  73 0024 FFF7FEFF 		bl	__aeabi_ui2f
  74              	.LVL8:
  75 0028 4749     		ldr	r1, .L3+24
  76 002a FFF7FEFF 		bl	__aeabi_fmul
  77              	.LVL9:
ARM GAS  C:\Users\dufma\AppData\Local\Temp\ccYkmTZU.s 			page 5


  78 002e 4749     		ldr	r1, .L3+28
  79 0030 FFF7FEFF 		bl	__aeabi_fmul
  80              	.LVL10:
  81 0034 8246     		mov	r10, r0
  82              	.LVL11:
 152:.\main.c      ****     
 153:.\main.c      ****     AccXangle = (float) (atan2(Y_AXIS, Z_AXIS)+M_PI) *180 / M_PI;
  83              		.loc 1 153 0
  84 0036 2046     		mov	r0, r4
  85              	.LVL12:
  86 0038 FFF7FEFF 		bl	__aeabi_ui2d
  87              	.LVL13:
  88 003c 0446     		mov	r4, r0
  89 003e 0D46     		mov	r5, r1
  90 0040 3046     		mov	r0, r6
  91 0042 FFF7FEFF 		bl	__aeabi_ui2d
  92              	.LVL14:
  93 0046 2246     		mov	r2, r4
  94 0048 2B46     		mov	r3, r5
  95 004a FFF7FEFF 		bl	atan2
  96              	.LVL15:
  97 004e 38A3     		adr	r3, .L3
  98 0050 D3E90023 		ldrd	r2, [r3]
  99 0054 FFF7FEFF 		bl	__aeabi_dadd
 100              	.LVL16:
 101 0058 FFF7FEFF 		bl	__aeabi_d2f
 102              	.LVL17:
 103 005c 3C49     		ldr	r1, .L3+32
 104 005e FFF7FEFF 		bl	__aeabi_fmul
 105              	.LVL18:
 106 0062 FFF7FEFF 		bl	__aeabi_f2d
 107              	.LVL19:
 108 0066 32A3     		adr	r3, .L3
 109 0068 D3E90023 		ldrd	r2, [r3]
 110 006c FFF7FEFF 		bl	__aeabi_ddiv
 111              	.LVL20:
 112 0070 0646     		mov	r6, r0
 113 0072 0F46     		mov	r7, r1
 114              	.LVL21:
 154:.\main.c      ****     AccYangle = (float) (atan2(Z_AXIS, X_AXIS)+M_PI) *180 / M_PI;
 115              		.loc 1 154 0
 116 0074 4046     		mov	r0, r8
 117 0076 FFF7FEFF 		bl	__aeabi_ui2d
 118              	.LVL22:
 119 007a 0246     		mov	r2, r0
 120 007c 0B46     		mov	r3, r1
 121 007e 2046     		mov	r0, r4
 122 0080 2946     		mov	r1, r5
 123 0082 FFF7FEFF 		bl	atan2
 124              	.LVL23:
 125 0086 2AA3     		adr	r3, .L3
 126 0088 D3E90023 		ldrd	r2, [r3]
 127 008c FFF7FEFF 		bl	__aeabi_dadd
 128              	.LVL24:
 129 0090 FFF7FEFF 		bl	__aeabi_d2f
 130              	.LVL25:
 131 0094 2E49     		ldr	r1, .L3+32
ARM GAS  C:\Users\dufma\AppData\Local\Temp\ccYkmTZU.s 			page 6


 132 0096 FFF7FEFF 		bl	__aeabi_fmul
 133              	.LVL26:
 134 009a FFF7FEFF 		bl	__aeabi_f2d
 135              	.LVL27:
 136 009e 24A3     		adr	r3, .L3
 137 00a0 D3E90023 		ldrd	r2, [r3]
 138 00a4 FFF7FEFF 		bl	__aeabi_ddiv
 139              	.LVL28:
 140 00a8 8046     		mov	r8, r0
 141 00aa 8946     		mov	r9, r1
 142              	.LVL29:
 155:.\main.c      ****     
 156:.\main.c      ****     CFangleX =0.98 * (CFangleX+x_rate)+0.02* AccXangle;
 143              		.loc 1 156 0
 144 00ac 5846     		mov	r0, fp
 145 00ae FFF7FEFF 		bl	__aeabi_f2d
 146              	.LVL30:
 147 00b2 0022     		movs	r2, #0
 148 00b4 0023     		movs	r3, #0
 149 00b6 FFF7FEFF 		bl	__aeabi_dadd
 150              	.LVL31:
 151 00ba 1FA3     		adr	r3, .L3+8
 152 00bc D3E90023 		ldrd	r2, [r3]
 153 00c0 FFF7FEFF 		bl	__aeabi_dmul
 154              	.LVL32:
 155 00c4 0446     		mov	r4, r0
 156 00c6 0D46     		mov	r5, r1
 157 00c8 3046     		mov	r0, r6
 158 00ca 3946     		mov	r1, r7
 159 00cc 1CA3     		adr	r3, .L3+16
 160 00ce D3E90023 		ldrd	r2, [r3]
 161 00d2 FFF7FEFF 		bl	__aeabi_dmul
 162              	.LVL33:
 163 00d6 0246     		mov	r2, r0
 164 00d8 0B46     		mov	r3, r1
 165 00da 2046     		mov	r0, r4
 166 00dc 2946     		mov	r1, r5
 167 00de FFF7FEFF 		bl	__aeabi_dadd
 168              	.LVL34:
 169 00e2 0646     		mov	r6, r0
 170              	.LVL35:
 171 00e4 0F46     		mov	r7, r1
 172              	.LVL36:
 157:.\main.c      ****     CFangleY =0.98 * (CFangleY+y_rate)+0.02* AccYangle;
 173              		.loc 1 157 0
 174 00e6 5046     		mov	r0, r10
 175 00e8 FFF7FEFF 		bl	__aeabi_f2d
 176              	.LVL37:
 177 00ec 0022     		movs	r2, #0
 178 00ee 0023     		movs	r3, #0
 179 00f0 FFF7FEFF 		bl	__aeabi_dadd
 180              	.LVL38:
 181 00f4 10A3     		adr	r3, .L3+8
 182 00f6 D3E90023 		ldrd	r2, [r3]
 183 00fa FFF7FEFF 		bl	__aeabi_dmul
 184              	.LVL39:
 185 00fe 0446     		mov	r4, r0
ARM GAS  C:\Users\dufma\AppData\Local\Temp\ccYkmTZU.s 			page 7


 186 0100 0D46     		mov	r5, r1
 187 0102 4046     		mov	r0, r8
 188 0104 4946     		mov	r1, r9
 189 0106 0EA3     		adr	r3, .L3+16
 190 0108 D3E90023 		ldrd	r2, [r3]
 191 010c FFF7FEFF 		bl	__aeabi_dmul
 192              	.LVL40:
 193 0110 0246     		mov	r2, r0
 194 0112 0B46     		mov	r3, r1
 195 0114 2046     		mov	r0, r4
 196 0116 2946     		mov	r1, r5
 197 0118 FFF7FEFF 		bl	__aeabi_dadd
 198              	.LVL41:
 158:.\main.c      ****   //If you want to print out the value  
 159:.\main.c      ****   printf("%7.3f %7.3f \r\n", CFangleX, CFangleY);
 199              		.loc 1 159 0
 200 011c CDE90001 		strd	r0, [sp]
 201 0120 0C48     		ldr	r0, .L3+36
 202              	.LVL42:
 203 0122 3246     		mov	r2, r6
 204 0124 3B46     		mov	r3, r7
 205 0126 FFF7FEFF 		bl	printf
 206              	.LVL43:
 160:.\main.c      **** }
 207              		.loc 1 160 0
 208 012a 03B0     		add	sp, sp, #12
 209              		.cfi_def_cfa_offset 36
 210              		@ sp needed
 211 012c BDE8F08F 		pop	{r4, r5, r6, r7, r8, r9, r10, fp, pc}
 212              	.LVL44:
 213              	.L4:
 214              		.align	3
 215              	.L3:
 216 0130 182D4454 		.word	1413754136
 217 0134 FB210940 		.word	1074340347
 218 0138 5C8FC2F5 		.word	-171798692
 219 013c 285CEF3F 		.word	1072651304
 220 0140 7B14AE47 		.word	1202590843
 221 0144 E17A943F 		.word	1066695393
 222 0148 295C8F3D 		.word	1032805417
 223 014c 0AD7A33C 		.word	1017370378
 224 0150 00003443 		.word	1127481344
 225 0154 00000000 		.word	.LC0
 226              		.cfi_endproc
 227              	.LFE63:
 228              		.size	value_convert_accel, .-value_convert_accel
 229              		.global	__aeabi_i2d
 230              		.section	.text.main,"ax",%progbits
 231              		.align	2
 232              		.global	main
 233              		.thumb
 234              		.thumb_func
 235              		.type	main, %function
 236              	main:
 237              	.LFB64:
 161:.\main.c      **** 
 162:.\main.c      **** //*//accelerometer//
ARM GAS  C:\Users\dufma\AppData\Local\Temp\ccYkmTZU.s 			page 8


 163:.\main.c      **** int main()
 164:.\main.c      **** {
 238              		.loc 1 164 0
 239              		.cfi_startproc
 240              		@ args = 0, pretend = 0, frame = 0
 241              		@ frame_needed = 0, uses_anonymous_args = 0
 242 0000 2DE9F04F 		push	{r4, r5, r6, r7, r8, r9, r10, fp, lr}
 243              		.cfi_def_cfa_offset 36
 244              		.cfi_offset 4, -36
 245              		.cfi_offset 5, -32
 246              		.cfi_offset 6, -28
 247              		.cfi_offset 7, -24
 248              		.cfi_offset 8, -20
 249              		.cfi_offset 9, -16
 250              		.cfi_offset 10, -12
 251              		.cfi_offset 11, -8
 252              		.cfi_offset 14, -4
 253 0004 83B0     		sub	sp, sp, #12
 254              		.cfi_def_cfa_offset 48
 165:.\main.c      ****     CyGlobalIntEnable; 
 255              		.loc 1 165 0
 256              	@ 165 ".\main.c" 1
 257 0006 62B6     		CPSIE   i
 258              	@ 0 "" 2
 166:.\main.c      ****     UART_Start();
 259              		.loc 1 166 0
 260              		.thumb
 261 0008 FFF7FEFF 		bl	UART_Start
 262              	.LVL45:
 167:.\main.c      ****   
 168:.\main.c      ****     I2C_Start();
 263              		.loc 1 168 0
 264 000c FFF7FEFF 		bl	I2C_Start
 265              	.LVL46:
 169:.\main.c      ****   
 170:.\main.c      ****     uint8 X_L_A, X_H_A, Y_L_A, Y_H_A, Z_L_A, Z_H_A;
 171:.\main.c      ****     int16 X_AXIS_A, Y_AXIS_A, Z_AXIS_A;
 172:.\main.c      ****     
 173:.\main.c      ****     I2C_write(ACCEL_MAG_ADDR, ACCEL_CTRL1_REG, 0x37);           // set accelerometer & magnetometer
 266              		.loc 1 173 0
 267 0010 1D20     		movs	r0, #29
 268 0012 2021     		movs	r1, #32
 269 0014 3722     		movs	r2, #55
 270 0016 FFF7FEFF 		bl	I2C_write
 271              	.LVL47:
 174:.\main.c      ****     I2C_write(ACCEL_MAG_ADDR, ACCEL_CTRL7_REG, 0x22);
 272              		.loc 1 174 0
 273 001a 1D20     		movs	r0, #29
 274 001c 2621     		movs	r1, #38
 275 001e 2222     		movs	r2, #34
 276 0020 FFF7FEFF 		bl	I2C_write
 277              	.LVL48:
 175:.\main.c      ****     
 176:.\main.c      ****     uint8 X_L_G, X_H_G, Y_L_G, Y_H_G, Z_L_G, Z_H_G;
 177:.\main.c      ****     int16 X_AXIS_G, Y_AXIS_G, Z_AXIS_G;
 178:.\main.c      ****     
 179:.\main.c      ****     I2C_write(GYRO_ADDR, GYRO_CTRL1_REG, 0x0F);             // set gyroscope into active mode
ARM GAS  C:\Users\dufma\AppData\Local\Temp\ccYkmTZU.s 			page 9


 278              		.loc 1 179 0
 279 0024 6B20     		movs	r0, #107
 280 0026 2021     		movs	r1, #32
 281 0028 0F22     		movs	r2, #15
 282 002a FFF7FEFF 		bl	I2C_write
 283              	.LVL49:
 180:.\main.c      ****     I2C_write(GYRO_ADDR, GYRO_CTRL4_REG, 0x30);             // set full scale selection to 2000dps 
 284              		.loc 1 180 0
 285 002e 6B20     		movs	r0, #107
 286 0030 2321     		movs	r1, #35
 287 0032 3022     		movs	r2, #48
 288 0034 FFF7FEFF 		bl	I2C_write
 289              	.LVL50:
 290              	.L6:
 181:.\main.c      ****     
 182:.\main.c      ****     for(;;)
 183:.\main.c      ****     {
 184:.\main.c      ****         //print out accelerometer output
 185:.\main.c      ****         X_L_A = I2C_read(ACCEL_MAG_ADDR, OUT_X_L_A);
 291              		.loc 1 185 0 discriminator 1
 292 0038 1D20     		movs	r0, #29
 293 003a 2821     		movs	r1, #40
 294 003c FFF7FEFF 		bl	I2C_read
 295              	.LVL51:
 296 0040 0446     		mov	r4, r0
 297              	.LVL52:
 186:.\main.c      ****         X_H_A = I2C_read(ACCEL_MAG_ADDR, OUT_X_H_A);
 298              		.loc 1 186 0 discriminator 1
 299 0042 1D20     		movs	r0, #29
 300 0044 2921     		movs	r1, #41
 301 0046 FFF7FEFF 		bl	I2C_read
 302              	.LVL53:
 303 004a 0146     		mov	r1, r0
 304              	.LVL54:
 187:.\main.c      ****         X_AXIS_A = convert_raw(X_L_A, X_H_A);
 305              		.loc 1 187 0 discriminator 1
 306 004c 2046     		mov	r0, r4
 307 004e FFF7FEFF 		bl	convert_raw
 308              	.LVL55:
 309 0052 8246     		mov	r10, r0
 310              	.LVL56:
 188:.\main.c      ****         
 189:.\main.c      ****         Y_L_A = I2C_read(ACCEL_MAG_ADDR, OUT_Y_L_A);
 311              		.loc 1 189 0 discriminator 1
 312 0054 1D20     		movs	r0, #29
 313 0056 2A21     		movs	r1, #42
 314 0058 FFF7FEFF 		bl	I2C_read
 315              	.LVL57:
 316 005c 0446     		mov	r4, r0
 317              	.LVL58:
 190:.\main.c      ****         Y_H_A = I2C_read(ACCEL_MAG_ADDR, OUT_Y_H_A);
 318              		.loc 1 190 0 discriminator 1
 319 005e 1D20     		movs	r0, #29
 320 0060 2B21     		movs	r1, #43
 321 0062 FFF7FEFF 		bl	I2C_read
 322              	.LVL59:
 323 0066 0146     		mov	r1, r0
ARM GAS  C:\Users\dufma\AppData\Local\Temp\ccYkmTZU.s 			page 10


 324              	.LVL60:
 191:.\main.c      ****         Y_AXIS_A = convert_raw(Y_L_A, Y_H_A);
 325              		.loc 1 191 0 discriminator 1
 326 0068 2046     		mov	r0, r4
 327 006a FFF7FEFF 		bl	convert_raw
 328              	.LVL61:
 329 006e 8146     		mov	r9, r0
 330              	.LVL62:
 192:.\main.c      ****         
 193:.\main.c      ****         Z_L_A = I2C_read(ACCEL_MAG_ADDR, OUT_Z_L_A);
 331              		.loc 1 193 0 discriminator 1
 332 0070 1D20     		movs	r0, #29
 333 0072 2C21     		movs	r1, #44
 334 0074 FFF7FEFF 		bl	I2C_read
 335              	.LVL63:
 336 0078 0446     		mov	r4, r0
 337              	.LVL64:
 194:.\main.c      ****         Z_H_A = I2C_read(ACCEL_MAG_ADDR, OUT_Z_H_A);
 338              		.loc 1 194 0 discriminator 1
 339 007a 1D20     		movs	r0, #29
 340 007c 2D21     		movs	r1, #45
 341 007e FFF7FEFF 		bl	I2C_read
 342              	.LVL65:
 343 0082 0146     		mov	r1, r0
 344              	.LVL66:
 195:.\main.c      ****         Z_AXIS_A = convert_raw(Z_L_A, Z_H_A);
 345              		.loc 1 195 0 discriminator 1
 346 0084 2046     		mov	r0, r4
 347 0086 FFF7FEFF 		bl	convert_raw
 348              	.LVL67:
 349 008a 8046     		mov	r8, r0
 350              	.LVL68:
 196:.\main.c      ****         
 197:.\main.c      ****         
 198:.\main.c      ****         //print out gyroscope output
 199:.\main.c      ****         X_L_G = I2C_read(GYRO_ADDR, OUT_X_AXIS_L);
 351              		.loc 1 199 0 discriminator 1
 352 008c 6B20     		movs	r0, #107
 353 008e 2821     		movs	r1, #40
 354 0090 FFF7FEFF 		bl	I2C_read
 355              	.LVL69:
 356 0094 0446     		mov	r4, r0
 357              	.LVL70:
 200:.\main.c      ****         X_H_G = I2C_read(GYRO_ADDR, OUT_X_AXIS_H);
 358              		.loc 1 200 0 discriminator 1
 359 0096 6B20     		movs	r0, #107
 360 0098 2921     		movs	r1, #41
 361 009a FFF7FEFF 		bl	I2C_read
 362              	.LVL71:
 201:.\main.c      ****         X_AXIS_G = convert_raw(X_H_G, X_L_G);
 363              		.loc 1 201 0 discriminator 1
 364 009e 2146     		mov	r1, r4
 365 00a0 FFF7FEFF 		bl	convert_raw
 366              	.LVL72:
 367 00a4 0646     		mov	r6, r0
 368 00a6 1FFA80FB 		uxth	fp, r0
 369              	.LVL73:
ARM GAS  C:\Users\dufma\AppData\Local\Temp\ccYkmTZU.s 			page 11


 202:.\main.c      ****         
 203:.\main.c      ****         
 204:.\main.c      ****         Y_L_G = I2C_read(GYRO_ADDR, OUT_Y_AXIS_L);
 370              		.loc 1 204 0 discriminator 1
 371 00aa 6B20     		movs	r0, #107
 372 00ac 2A21     		movs	r1, #42
 373 00ae FFF7FEFF 		bl	I2C_read
 374              	.LVL74:
 375 00b2 0446     		mov	r4, r0
 376              	.LVL75:
 205:.\main.c      ****         Y_H_G = I2C_read(GYRO_ADDR, OUT_Y_AXIS_H);
 377              		.loc 1 205 0 discriminator 1
 378 00b4 6B20     		movs	r0, #107
 379 00b6 2B21     		movs	r1, #43
 380 00b8 FFF7FEFF 		bl	I2C_read
 381              	.LVL76:
 206:.\main.c      ****         Y_AXIS_G = convert_raw(Y_H_G, Y_L_G);
 382              		.loc 1 206 0 discriminator 1
 383 00bc 2146     		mov	r1, r4
 384 00be FFF7FEFF 		bl	convert_raw
 385              	.LVL77:
 386 00c2 0746     		mov	r7, r0
 387 00c4 85B2     		uxth	r5, r0
 388              	.LVL78:
 207:.\main.c      ****         
 208:.\main.c      ****         
 209:.\main.c      ****         Z_L_G = I2C_read(GYRO_ADDR, OUT_Z_AXIS_L);
 389              		.loc 1 209 0 discriminator 1
 390 00c6 6B20     		movs	r0, #107
 391 00c8 2C21     		movs	r1, #44
 392 00ca FFF7FEFF 		bl	I2C_read
 393              	.LVL79:
 394 00ce 0446     		mov	r4, r0
 395              	.LVL80:
 210:.\main.c      ****         Z_H_G = I2C_read(GYRO_ADDR, OUT_Z_AXIS_H);
 396              		.loc 1 210 0 discriminator 1
 397 00d0 6B20     		movs	r0, #107
 398 00d2 2D21     		movs	r1, #45
 399 00d4 FFF7FEFF 		bl	I2C_read
 400              	.LVL81:
 211:.\main.c      ****         Z_AXIS_G = convert_raw(Z_H_G, Z_L_G);
 401              		.loc 1 211 0 discriminator 1
 402 00d8 2146     		mov	r1, r4
 403 00da FFF7FEFF 		bl	convert_raw
 404              	.LVL82:
 405 00de 84B2     		uxth	r4, r0
 406              	.LVL83:
 212:.\main.c      ****         
 213:.\main.c      ****         printf("%lf\t",(X_AXIS_G-70)*.00875);
 407              		.loc 1 213 0 discriminator 1
 408 00e0 0FFA8BF0 		sxth	r0, fp
 409 00e4 DFF874B0 		ldr	fp, .L8+12
 410              	.LVL84:
 411 00e8 4638     		subs	r0, r0, #70
 412              	.LVL85:
 413 00ea FFF7FEFF 		bl	__aeabi_i2d
 414              	.LVL86:
ARM GAS  C:\Users\dufma\AppData\Local\Temp\ccYkmTZU.s 			page 12


 415 00ee 18A3     		adr	r3, .L8
 416 00f0 D3E90023 		ldrd	r2, [r3]
 417 00f4 FFF7FEFF 		bl	__aeabi_dmul
 418              	.LVL87:
 419 00f8 0246     		mov	r2, r0
 420 00fa 0B46     		mov	r3, r1
 421 00fc 5846     		mov	r0, fp
 422 00fe FFF7FEFF 		bl	printf
 423              	.LVL88:
 214:.\main.c      ****         printf("%lf\t",(Y_AXIS_G+90)*.00875);      
 424              		.loc 1 214 0 discriminator 1
 425 0102 28B2     		sxth	r0, r5
 426 0104 5A30     		adds	r0, r0, #90
 427 0106 FFF7FEFF 		bl	__aeabi_i2d
 428              	.LVL89:
 429 010a 11A3     		adr	r3, .L8
 430 010c D3E90023 		ldrd	r2, [r3]
 431 0110 FFF7FEFF 		bl	__aeabi_dmul
 432              	.LVL90:
 433 0114 0246     		mov	r2, r0
 434 0116 0B46     		mov	r3, r1
 435 0118 5846     		mov	r0, fp
 436 011a FFF7FEFF 		bl	printf
 437              	.LVL91:
 215:.\main.c      ****         printf("%lf\r\n",(Z_AXIS_G+57)*.00875);        
 438              		.loc 1 215 0 discriminator 1
 439 011e 20B2     		sxth	r0, r4
 440 0120 3930     		adds	r0, r0, #57
 441 0122 FFF7FEFF 		bl	__aeabi_i2d
 442              	.LVL92:
 443 0126 0AA3     		adr	r3, .L8
 444 0128 D3E90023 		ldrd	r2, [r3]
 445 012c FFF7FEFF 		bl	__aeabi_dmul
 446              	.LVL93:
 447 0130 0246     		mov	r2, r0
 448 0132 0B46     		mov	r3, r1
 449 0134 0848     		ldr	r0, .L8+8
 450 0136 FFF7FEFF 		bl	printf
 451              	.LVL94:
 216:.\main.c      **** 
 217:.\main.c      **** 
 218:.\main.c      ****      
 219:.\main.c      ****         
 220:.\main.c      ****         //printf("ACCEL: %d %d %d %d %d %d \r\n", X_L_A, X_H_A, Y_L_A, Y_H_A, Z_L_A, Z_H_A);
 221:.\main.c      ****         value_convert_accel(X_AXIS_A, Y_AXIS_A, Z_AXIS_A,X_AXIS_G,Y_AXIS_G);
 452              		.loc 1 221 0 discriminator 1
 453 013a 0097     		str	r7, [sp]
 454 013c 5046     		mov	r0, r10
 455 013e 4946     		mov	r1, r9
 456 0140 4246     		mov	r2, r8
 457 0142 3346     		mov	r3, r6
 458 0144 FFF7FEFF 		bl	value_convert_accel
 459              	.LVL95:
 222:.\main.c      ****         
 223:.\main.c      ****         CyDelay(20);
 460              		.loc 1 223 0 discriminator 1
 461 0148 1420     		movs	r0, #20
ARM GAS  C:\Users\dufma\AppData\Local\Temp\ccYkmTZU.s 			page 13


 462 014a FFF7FEFF 		bl	CyDelay
 463              	.LVL96:
 224:.\main.c      ****     }
 464              		.loc 1 224 0 discriminator 1
 465 014e 73E7     		b	.L6
 466              	.L9:
 467              		.align	3
 468              	.L8:
 469 0150 EC51B81E 		.word	515396076
 470 0154 85EB813F 		.word	1065479045
 471 0158 18000000 		.word	.LC2
 472 015c 10000000 		.word	.LC1
 473              		.cfi_endproc
 474              	.LFE64:
 475              		.size	main, .-main
 476              		.section	.text._write,"ax",%progbits
 477              		.align	2
 478              		.global	_write
 479              		.thumb
 480              		.thumb_func
 481              		.type	_write, %function
 482              	_write:
 483              	.LFB65:
 225:.\main.c      **** }   
 226:.\main.c      **** //*/
 227:.\main.c      **** 
 228:.\main.c      **** 
 229:.\main.c      **** /*//reflectance//
 230:.\main.c      **** int main()
 231:.\main.c      **** {
 232:.\main.c      ****     CyGlobalIntEnable; 
 233:.\main.c      ****     UART_Start();
 234:.\main.c      ****   
 235:.\main.c      ****     sensor_isr_StartEx(sensor_isr_handler);
 236:.\main.c      ****     
 237:.\main.c      ****     Refelctance_Start();
 238:.\main.c      **** 
 239:.\main.c      ****     IR_led_Write(1);
 240:.\main.c      ****     for(;;)
 241:.\main.c      ****     {
 242:.\main.c      ****         reflectance_period();      //print out each period of reflectance sensors
 243:.\main.c      ****         reflectance_digital();      //print out 0 or 1 according to results of reflectance period
 244:.\main.c      ****         
 245:.\main.c      ****         CyDelay(500);
 246:.\main.c      ****     }
 247:.\main.c      **** }   
 248:.\main.c      **** */
 249:.\main.c      **** 
 250:.\main.c      ****  /* //motor//
 251:.\main.c      **** int main()
 252:.\main.c      **** {
 253:.\main.c      ****     CyGlobalIntEnable; 
 254:.\main.c      ****     UART_Start();
 255:.\main.c      **** 
 256:.\main.c      ****     motor_Start();              // motor start
 257:.\main.c      **** 
 258:.\main.c      ****     motor_forward(50,2000);     // moving forward
ARM GAS  C:\Users\dufma\AppData\Local\Temp\ccYkmTZU.s 			page 14


 259:.\main.c      ****     motor_turn(10,50,2000);     // turn
 260:.\main.c      ****     motor_turn(50,10,2000);     // turn
 261:.\main.c      ****     motor_backward(50,2000);    // movinb backward
 262:.\main.c      ****        
 263:.\main.c      ****     motor_Stop();               // motor stop
 264:.\main.c      ****     
 265:.\main.c      ****     for(;;)
 266:.\main.c      ****     {
 267:.\main.c      **** 
 268:.\main.c      ****     }
 269:.\main.c      **** }
 270:.\main.c      **** //*/
 271:.\main.c      ****     
 272:.\main.c      **** /*//gyroscope//
 273:.\main.c      **** int main()
 274:.\main.c      **** {
 275:.\main.c      ****     CyGlobalIntEnable; 
 276:.\main.c      ****     UART_Start();
 277:.\main.c      ****   
 278:.\main.c      ****     I2C_Start();
 279:.\main.c      ****   
 280:.\main.c      ****     uint8 X_L_G, X_H_G, Y_L_G, Y_H_G, Z_L_G, Z_H_G;
 281:.\main.c      ****     int16 X_AXIS_G, Y_AXIS_G, Z_AXIS_G;
 282:.\main.c      ****     
 283:.\main.c      ****     I2C_write(GYRO_ADDR, GYRO_CTRL1_REG, 0x0F);             // set gyroscope into active mode
 284:.\main.c      ****     I2C_write(GYRO_ADDR, GYRO_CTRL4_REG, 0x30);             // set full scale selection to 2000dps 
 285:.\main.c      ****     
 286:.\main.c      ****     for(;;)
 287:.\main.c      ****     {
 288:.\main.c      ****         //print out gyroscope output
 289:.\main.c      ****         X_L_G = I2C_read(GYRO_ADDR, OUT_X_AXIS_L);
 290:.\main.c      ****         X_H_G = I2C_read(GYRO_ADDR, OUT_X_AXIS_H);
 291:.\main.c      ****         X_AXIS_G = convert_raw(X_H_G, X_L_G);
 292:.\main.c      ****         
 293:.\main.c      ****         
 294:.\main.c      ****         Y_L_G = I2C_read(GYRO_ADDR, OUT_Y_AXIS_L);
 295:.\main.c      ****         Y_H_G = I2C_read(GYRO_ADDR, OUT_Y_AXIS_H);
 296:.\main.c      ****         Y_AXIS_G = convert_raw(Y_H_G, Y_L_G);
 297:.\main.c      ****         
 298:.\main.c      ****         
 299:.\main.c      ****         Z_L_G = I2C_read(GYRO_ADDR, OUT_Z_AXIS_L);
 300:.\main.c      ****         Z_H_G = I2C_read(GYRO_ADDR, OUT_Z_AXIS_H);
 301:.\main.c      ****         Z_AXIS_G = convert_raw(Z_H_G, Z_L_G);
 302:.\main.c      ****      
 303:.\main.c      ****         printf("H L : %d %d %d %d %d %d \r\n", X_L_G, X_H_G, Y_L_G, Y_H_G, Z_L_G, Z_H_G);
 304:.\main.c      ****         printf("%d %d %d \r\n", X_AXIS_G, Y_AXIS_G, Z_AXIS_G);
 305:.\main.c      ****         //printf("%d %d %d \r\n", value_convert_gyro(X_AXIS_G), value_convert_gyro(Y_AXIS_G), value
 306:.\main.c      ****         
 307:.\main.c      ****        CyDelay(50);
 308:.\main.c      ****     }
 309:.\main.c      ****   
 310:.\main.c      **** }   
 311:.\main.c      **** //*/
 312:.\main.c      **** 
 313:.\main.c      **** /*//magnetometer//
 314:.\main.c      **** int main()
 315:.\main.c      **** {
ARM GAS  C:\Users\dufma\AppData\Local\Temp\ccYkmTZU.s 			page 15


 316:.\main.c      ****     CyGlobalIntEnable; 
 317:.\main.c      ****     UART_Start();
 318:.\main.c      ****   
 319:.\main.c      ****     I2C_Start();
 320:.\main.c      ****    
 321:.\main.c      ****     uint8 X_L_M, X_H_M, Y_L_M, Y_H_M, Z_L_M, Z_H_M;
 322:.\main.c      ****     int16 X_AXIS, Y_AXIS, Z_AXIS;
 323:.\main.c      ****     
 324:.\main.c      ****     I2C_write(GYRO_ADDR, GYRO_CTRL1_REG, 0x0F);             // set gyroscope into active mode
 325:.\main.c      ****     I2C_write(GYRO_ADDR, GYRO_CTRL4_REG, 0x30);             // set full scale selection to 2000dps
 326:.\main.c      ****     I2C_write(ACCEL_MAG_ADDR, ACCEL_CTRL1_REG, 0x37);           // set accelerometer & magnetometer
 327:.\main.c      ****     I2C_write(ACCEL_MAG_ADDR, ACCEL_CTRL7_REG, 0x22);
 328:.\main.c      ****     
 329:.\main.c      ****     
 330:.\main.c      ****     for(;;)
 331:.\main.c      ****     {
 332:.\main.c      ****         X_L_M = I2C_read(ACCEL_MAG_ADDR, OUT_X_L_M);
 333:.\main.c      ****         X_H_M = I2C_read(ACCEL_MAG_ADDR, OUT_X_H_M);
 334:.\main.c      ****         X_AXIS = convert_raw(X_L_M, X_H_M);
 335:.\main.c      ****         
 336:.\main.c      ****         Y_L_M = I2C_read(ACCEL_MAG_ADDR, OUT_Y_L_M);
 337:.\main.c      ****         Y_H_M = I2C_read(ACCEL_MAG_ADDR, OUT_Y_H_M);
 338:.\main.c      ****         Y_AXIS = convert_raw(Y_L_M, Y_H_M);
 339:.\main.c      ****         
 340:.\main.c      ****         Z_L_M = I2C_read(ACCEL_MAG_ADDR, OUT_Z_L_M);
 341:.\main.c      ****         Z_H_M = I2C_read(ACCEL_MAG_ADDR, OUT_Z_H_M);
 342:.\main.c      ****         Z_AXIS = convert_raw(Z_L_M, Z_H_M);
 343:.\main.c      ****         
 344:.\main.c      ****         heading(X_AXIS, Y_AXIS);
 345:.\main.c      ****         printf("MAGNET: %d %d %d %d %d %d \r\n", X_L_M, X_H_M, Y_L_M, Y_H_M, Z_L_M, Z_H_M);
 346:.\main.c      ****         printf("%d %d %d \r\n", X_AXIS,Y_AXIS, Z_AXIS);
 347:.\main.c      ****         CyDelay(50);      
 348:.\main.c      ****     }
 349:.\main.c      **** }   
 350:.\main.c      **** //*/
 351:.\main.c      **** 
 352:.\main.c      **** 
 353:.\main.c      **** 
 354:.\main.c      **** #if 0
 355:.\main.c      **** int rread(void)
 356:.\main.c      **** {
 357:.\main.c      ****     SC0_SetDriveMode(PIN_DM_STRONG);
 358:.\main.c      ****     SC0_Write(1);
 359:.\main.c      ****     CyDelayUs(10);
 360:.\main.c      ****     SC0_SetDriveMode(PIN_DM_DIG_HIZ);
 361:.\main.c      ****     Timer_1_Start();
 362:.\main.c      ****     uint16_t start = Timer_1_ReadCounter();
 363:.\main.c      ****     uint16_t end = 0;
 364:.\main.c      ****     while(!(Timer_1_ReadStatusRegister() & Timer_1_STATUS_TC)) {
 365:.\main.c      ****         if(SC0_Read() == 0 && end == 0) {
 366:.\main.c      ****             end = Timer_1_ReadCounter();
 367:.\main.c      ****         }
 368:.\main.c      ****     }
 369:.\main.c      ****     Timer_1_Stop();
 370:.\main.c      ****     
 371:.\main.c      ****     return (start - end);
 372:.\main.c      **** }
ARM GAS  C:\Users\dufma\AppData\Local\Temp\ccYkmTZU.s 			page 16


 373:.\main.c      **** #endif
 374:.\main.c      **** 
 375:.\main.c      **** int _write(int file, char *ptr, int len)
 376:.\main.c      **** {
 484              		.loc 1 376 0
 485              		.cfi_startproc
 486              		@ args = 0, pretend = 0, frame = 0
 487              		@ frame_needed = 0, uses_anonymous_args = 0
 488              	.LVL97:
 489 0000 70B5     		push	{r4, r5, r6, lr}
 490              		.cfi_def_cfa_offset 16
 491              		.cfi_offset 4, -16
 492              		.cfi_offset 5, -12
 493              		.cfi_offset 6, -8
 494              		.cfi_offset 14, -4
 495 0002 1646     		mov	r6, r2
 496              	.LVL98:
 377:.\main.c      ****     (void) file;
 378:.\main.c      **** 	int n;
 379:.\main.c      **** 	for(n = 0; n < len; n++) {
 497              		.loc 1 379 0
 498 0004 0024     		movs	r4, #0
 499 0006 05E0     		b	.L11
 500              	.LVL99:
 501              	.L12:
 380:.\main.c      **** 		UART_PutChar(*ptr++);
 502              		.loc 1 380 0 discriminator 3
 503 0008 4D1C     		adds	r5, r1, #1
 504              	.LVL100:
 505 000a 0878     		ldrb	r0, [r1]	@ zero_extendqisi2
 506 000c FFF7FEFF 		bl	UART_PutChar
 507              	.LVL101:
 379:.\main.c      **** 		UART_PutChar(*ptr++);
 508              		.loc 1 379 0 discriminator 3
 509 0010 0134     		adds	r4, r4, #1
 510              	.LVL102:
 511              		.loc 1 380 0 discriminator 3
 512 0012 2946     		mov	r1, r5
 513              	.LVL103:
 514              	.L11:
 379:.\main.c      **** 		UART_PutChar(*ptr++);
 515              		.loc 1 379 0 discriminator 1
 516 0014 B442     		cmp	r4, r6
 517 0016 F7DB     		blt	.L12
 381:.\main.c      **** 	}
 382:.\main.c      **** 	return len;
 383:.\main.c      **** }
 518              		.loc 1 383 0
 519 0018 3046     		mov	r0, r6
 520 001a 70BD     		pop	{r4, r5, r6, pc}
 521              		.cfi_endproc
 522              	.LFE65:
 523              		.size	_write, .-_write
 524              		.comm	digital_sensor_value,8,4
 525              		.comm	sensors,8,4
 526              		.section	.rodata.str1.4,"aMS",%progbits,1
 527              		.align	2
ARM GAS  C:\Users\dufma\AppData\Local\Temp\ccYkmTZU.s 			page 17


 528              	.LC0:
 529 0000 25372E33 		.ascii	"%7.3f %7.3f \015\012\000"
 529      66202537 
 529      2E336620 
 529      0D0A00
 530 000f 00       		.space	1
 531              	.LC1:
 532 0010 256C6609 		.ascii	"%lf\011\000"
 532      00
 533 0015 000000   		.space	3
 534              	.LC2:
 535 0018 256C660D 		.ascii	"%lf\015\012\000"
 535      0A00
 536 001e 0000     		.text
 537              	.Letext0:
 538              		.file 2 "c:\\program files (x86)\\cypress\\psoc creator\\3.3\\psoc creator\\import\\gnu\\arm\\4.9.
 539              		.file 3 "c:\\program files (x86)\\cypress\\psoc creator\\3.3\\psoc creator\\import\\gnu\\arm\\4.9.
 540              		.file 4 "Generated_Source\\PSoC5/cytypes.h"
 541              		.file 5 ".\\Reflectance.h"
 542              		.file 6 "Generated_Source\\PSoC5/core_cm3.h"
 543              		.file 7 "c:\\program files (x86)\\cypress\\psoc creator\\3.3\\psoc creator\\import\\gnu\\arm\\4.9.
 544              		.file 8 "c:\\program files (x86)\\cypress\\psoc creator\\3.3\\psoc creator\\import\\gnu\\arm\\4.9.
 545              		.file 9 "Generated_Source\\PSoC5/UART.h"
 546              		.file 10 "Generated_Source\\PSoC5/I2C.h"
 547              		.file 11 ".\\I2C_made.h"
 548              		.file 12 "Generated_Source\\PSoC5/CyLib.h"