ARM GAS  C:\Users\dufma\AppData\Local\Temp\ccgfo0ie.s 			page 1


   1              		.syntax unified
   2              		.cpu cortex-m3
   3              		.fpu softvfp
   4              		.eabi_attribute 20, 1
   5              		.eabi_attribute 21, 1
   6              		.eabi_attribute 23, 3
   7              		.eabi_attribute 24, 1
   8              		.eabi_attribute 25, 1
   9              		.eabi_attribute 26, 1
  10              		.eabi_attribute 30, 1
  11              		.eabi_attribute 34, 1
  12              		.eabi_attribute 18, 4
  13              		.thumb
  14              		.file	"Nunchuk.c"
  15              		.text
  16              	.Ltext0:
  17              		.cfi_sections	.debug_frame
  18              		.section	.text.nunchuk_start,"ax",%progbits
  19              		.align	2
  20              		.global	nunchuk_start
  21              		.thumb
  22              		.thumb_func
  23              		.type	nunchuk_start, %function
  24              	nunchuk_start:
  25              	.LFB63:
  26              		.file 1 ".\\Nunchuk.c"
   1:.\Nunchuk.c   **** /**
   2:.\Nunchuk.c   ****  * @file    Nunchuk.c
   3:.\Nunchuk.c   ****  * @brief   Basic methods for operating wii nunchuck. For more details, please refer to Nunchuk.h f
   4:.\Nunchuk.c   ****  * @details 
   5:.\Nunchuk.c   **** */
   6:.\Nunchuk.c   **** #include "nunchuk.h"
   7:.\Nunchuk.c   **** 
   8:.\Nunchuk.c   **** 
   9:.\Nunchuk.c   **** /**
  10:.\Nunchuk.c   **** * @brief    Start Nunchuk
  11:.\Nunchuk.c   **** * @details
  12:.\Nunchuk.c   **** */
  13:.\Nunchuk.c   **** void nunchuk_start()
  14:.\Nunchuk.c   **** {
  27              		.loc 1 14 0
  28              		.cfi_startproc
  29              		@ args = 0, pretend = 0, frame = 0
  30              		@ frame_needed = 0, uses_anonymous_args = 0
  31 0000 08B5     		push	{r3, lr}
  32              		.cfi_def_cfa_offset 8
  33              		.cfi_offset 3, -8
  34              		.cfi_offset 14, -4
  15:.\Nunchuk.c   ****     I2C_Start();
  35              		.loc 1 15 0
  36 0002 FFF7FEFF 		bl	I2C_Start
  37              	.LVL0:
  38 0006 08BD     		pop	{r3, pc}
  39              		.cfi_endproc
  40              	.LFE63:
  41              		.size	nunchuk_start, .-nunchuk_start
  42              		.section	.text.nunchuk_init,"ax",%progbits
ARM GAS  C:\Users\dufma\AppData\Local\Temp\ccgfo0ie.s 			page 2


  43              		.align	2
  44              		.global	nunchuk_init
  45              		.thumb
  46              		.thumb_func
  47              		.type	nunchuk_init, %function
  48              	nunchuk_init:
  49              	.LFB64:
  16:.\Nunchuk.c   **** }
  17:.\Nunchuk.c   **** 
  18:.\Nunchuk.c   **** 
  19:.\Nunchuk.c   **** /**
  20:.\Nunchuk.c   **** * @brief    Initializing Nunchuk
  21:.\Nunchuk.c   **** * @details  write value(0x00) to register(address - 0x40) to initialize nunchuk
  22:.\Nunchuk.c   **** */
  23:.\Nunchuk.c   **** void nunchuk_init()
  24:.\Nunchuk.c   **** {
  50              		.loc 1 24 0
  51              		.cfi_startproc
  52              		@ args = 0, pretend = 0, frame = 8
  53              		@ frame_needed = 0, uses_anonymous_args = 0
  54 0000 10B5     		push	{r4, lr}
  55              		.cfi_def_cfa_offset 8
  56              		.cfi_offset 4, -8
  57              		.cfi_offset 14, -4
  58 0002 82B0     		sub	sp, sp, #8
  59              		.cfi_def_cfa_offset 16
  25:.\Nunchuk.c   ****     uint8_t buf[2] = { 0x40, 0x00 };
  60              		.loc 1 25 0
  61 0004 4023     		movs	r3, #64
  62 0006 8DF80430 		strb	r3, [sp, #4]
  63 000a 0024     		movs	r4, #0
  64 000c 8DF80540 		strb	r4, [sp, #5]
  26:.\Nunchuk.c   ****     uint8_t status;
  27:.\Nunchuk.c   ****     I2C_MasterClearStatus();
  65              		.loc 1 27 0
  66 0010 FFF7FEFF 		bl	I2C_MasterClearStatus
  67              	.LVL1:
  28:.\Nunchuk.c   ****     CyDelay(100);
  68              		.loc 1 28 0
  69 0014 6420     		movs	r0, #100
  70 0016 FFF7FEFF 		bl	CyDelay
  71              	.LVL2:
  29:.\Nunchuk.c   ****     status = I2C_MasterWriteBuf(0x52, buf, 2, I2C_MODE_COMPLETE_XFER);
  72              		.loc 1 29 0
  73 001a 5220     		movs	r0, #82
  74 001c 01A9     		add	r1, sp, #4
  75 001e 0222     		movs	r2, #2
  76 0020 2346     		mov	r3, r4
  77 0022 FFF7FEFF 		bl	I2C_MasterWriteBuf
  78              	.LVL3:
  79              	.L4:
  30:.\Nunchuk.c   ****     while(((status = I2C_MasterStatus()) & I2C_MSTAT_WR_CMPLT) == 0);
  80              		.loc 1 30 0 discriminator 1
  81 0026 FFF7FEFF 		bl	I2C_MasterStatus
  82              	.LVL4:
  83 002a 10F0020F 		tst	r0, #2
  84 002e FAD0     		beq	.L4
ARM GAS  C:\Users\dufma\AppData\Local\Temp\ccgfo0ie.s 			page 3


  31:.\Nunchuk.c   ****     CyDelay(100);
  85              		.loc 1 31 0
  86 0030 6420     		movs	r0, #100
  87              	.LVL5:
  88 0032 FFF7FEFF 		bl	CyDelay
  89              	.LVL6:
  32:.\Nunchuk.c   **** }    
  90              		.loc 1 32 0
  91 0036 02B0     		add	sp, sp, #8
  92              		.cfi_def_cfa_offset 8
  93              		@ sp needed
  94 0038 10BD     		pop	{r4, pc}
  95              		.cfi_endproc
  96              	.LFE64:
  97              		.size	nunchuk_init, .-nunchuk_init
  98 003a 00BF     		.section	.text.nunchuk_read,"ax",%progbits
  99              		.align	2
 100              		.global	nunchuk_read
 101              		.thumb
 102              		.thumb_func
 103              		.type	nunchuk_read, %function
 104              	nunchuk_read:
 105              	.LFB65:
  33:.\Nunchuk.c   **** 
  34:.\Nunchuk.c   **** 
  35:.\Nunchuk.c   **** /**
  36:.\Nunchuk.c   **** * @brief    Reading Nunchuk value
  37:.\Nunchuk.c   **** * @details  Reading nunchuk value and getting joystick and accelerometer values
  38:.\Nunchuk.c   **** */
  39:.\Nunchuk.c   **** void nunchuk_read()
  40:.\Nunchuk.c   **** {
 106              		.loc 1 40 0
 107              		.cfi_startproc
 108              		@ args = 0, pretend = 0, frame = 8
 109              		@ frame_needed = 0, uses_anonymous_args = 0
 110 0000 30B5     		push	{r4, r5, lr}
 111              		.cfi_def_cfa_offset 12
 112              		.cfi_offset 4, -12
 113              		.cfi_offset 5, -8
 114              		.cfi_offset 14, -4
 115 0002 83B0     		sub	sp, sp, #12
 116              		.cfi_def_cfa_offset 24
  41:.\Nunchuk.c   ****     uint8_t status;
  42:.\Nunchuk.c   ****     uint8_t buf[6];
  43:.\Nunchuk.c   ****     
  44:.\Nunchuk.c   ****     // send conversion command
  45:.\Nunchuk.c   ****     buf[0] = 0x00;
 117              		.loc 1 45 0
 118 0004 0025     		movs	r5, #0
 119 0006 02AC     		add	r4, sp, #8
 120 0008 04F8085D 		strb	r5, [r4, #-8]!
  46:.\Nunchuk.c   ****     I2C_MasterClearStatus();
 121              		.loc 1 46 0
 122 000c FFF7FEFF 		bl	I2C_MasterClearStatus
 123              	.LVL7:
  47:.\Nunchuk.c   ****     status = I2C_MasterWriteBuf(0x52, buf, 1, I2C_MODE_COMPLETE_XFER);
 124              		.loc 1 47 0
ARM GAS  C:\Users\dufma\AppData\Local\Temp\ccgfo0ie.s 			page 4


 125 0010 5220     		movs	r0, #82
 126 0012 2146     		mov	r1, r4
 127 0014 0122     		movs	r2, #1
 128 0016 2B46     		mov	r3, r5
 129 0018 FFF7FEFF 		bl	I2C_MasterWriteBuf
 130              	.LVL8:
 131              	.L7:
  48:.\Nunchuk.c   ****     while(((status = I2C_MasterStatus()) & I2C_MSTAT_WR_CMPLT) == 0);
 132              		.loc 1 48 0 discriminator 1
 133 001c FFF7FEFF 		bl	I2C_MasterStatus
 134              	.LVL9:
 135 0020 10F0020F 		tst	r0, #2
 136 0024 FAD0     		beq	.L7
  49:.\Nunchuk.c   ****     
  50:.\Nunchuk.c   ****     // wait for conversion to complete
  51:.\Nunchuk.c   ****     CyDelay(50); // todo: check if shorter wait would work
 137              		.loc 1 51 0
 138 0026 3220     		movs	r0, #50
 139              	.LVL10:
 140 0028 FFF7FEFF 		bl	CyDelay
 141              	.LVL11:
  52:.\Nunchuk.c   ****    
  53:.\Nunchuk.c   ****     // read values
  54:.\Nunchuk.c   ****     I2C_MasterClearStatus();
 142              		.loc 1 54 0
 143 002c FFF7FEFF 		bl	I2C_MasterClearStatus
 144              	.LVL12:
  55:.\Nunchuk.c   ****     status = I2C_MasterReadBuf(0x52, buf, 6, I2C_MODE_COMPLETE_XFER);
 145              		.loc 1 55 0
 146 0030 5220     		movs	r0, #82
 147 0032 6946     		mov	r1, sp
 148 0034 0622     		movs	r2, #6
 149 0036 0023     		movs	r3, #0
 150 0038 FFF7FEFF 		bl	I2C_MasterReadBuf
 151              	.LVL13:
 152              	.L8:
  56:.\Nunchuk.c   ****     while(((status = I2C_MasterStatus()) & I2C_MSTAT_RD_CMPLT) == 0);
 153              		.loc 1 56 0 discriminator 1
 154 003c FFF7FEFF 		bl	I2C_MasterStatus
 155              	.LVL14:
 156 0040 10F0010F 		tst	r0, #1
 157 0044 FAD0     		beq	.L8
 158 0046 0023     		movs	r3, #0
 159 0048 00E0     		b	.L9
 160              	.LVL15:
 161              	.L10:
  57:.\Nunchuk.c   ****     
  58:.\Nunchuk.c   ****     int i;
  59:.\Nunchuk.c   ****     // decrypt data
  60:.\Nunchuk.c   ****     for(i = 0; i < 6; i++) buf[i] = (buf[i] ^ 0x17) + 0x17;
 162              		.loc 1 60 0 discriminator 3
 163 004a 0133     		adds	r3, r3, #1
 164              	.LVL16:
 165              	.L9:
 166              		.loc 1 60 0 is_stmt 0 discriminator 1
 167 004c 052B     		cmp	r3, #5
 168 004e FCDD     		ble	.L10
ARM GAS  C:\Users\dufma\AppData\Local\Temp\ccgfo0ie.s 			page 5


  61:.\Nunchuk.c   ****     // accelerometer values
  62:.\Nunchuk.c   ****     int x,y,z;
  63:.\Nunchuk.c   ****     x = (buf[2] << 2) | ((buf[5] >> 2) & 0x03);
  64:.\Nunchuk.c   ****     y = (buf[3] << 2) | ((buf[5] >> 4) & 0x03);
  65:.\Nunchuk.c   ****     z = (buf[4] << 2) | ((buf[5] >> 6) & 0x03);
  66:.\Nunchuk.c   ****     
  67:.\Nunchuk.c   ****     //If you want to print out the value  
  68:.\Nunchuk.c   ****     //printf("%3d %3d, %d, %d, %4d %4d %4d\r\n", buf[0], buf[1], (buf[5] >> 1) & 1, buf[5] & 1, x, 
  69:.\Nunchuk.c   **** } ...
 169              		.loc 1 69 0 is_stmt 1
 170 0050 03B0     		add	sp, sp, #12
 171              		.cfi_def_cfa_offset 12
 172              		@ sp needed
 173 0052 30BD     		pop	{r4, r5, pc}
 174              		.cfi_endproc
 175              	.LFE65:
 176              		.size	nunchuk_read, .-nunchuk_read
 177              		.text
 178              	.Letext0:
 179              		.file 2 "c:\\program files (x86)\\cypress\\psoc creator\\3.3\\psoc creator\\import\\gnu\\arm\\4.9.
 180              		.file 3 "c:\\program files (x86)\\cypress\\psoc creator\\3.3\\psoc creator\\import\\gnu\\arm\\4.9.
 181              		.file 4 "Generated_Source\\PSoC5/cytypes.h"
 182              		.file 5 "Generated_Source\\PSoC5/I2C.h"
 183              		.file 6 "Generated_Source\\PSoC5/CyLib.h"
 184              		.file 7 "Generated_Source\\PSoC5/core_cm3.h"